

Microchip Technology PIC18 LITE Macro Assembler V1.30 build 55553 
                                                                                               Wed Nov 05 15:16:14 2014

Microchip Technology Omniscient Code Generator (Lite mode) build 55553
     1                           	processor	18F45K80
     2                           	fnconf	rparam,??,?,0
     3                           	opt	pw 120
     4                           	opt	lm
     5                           	psect	text0,global,reloc=2,class=CODE,delta=1
     6                           	psect	cinit,global,reloc=2,class=CODE,delta=1
     7                           	psect	bssCOMRAM,global,class=COMRAM,space=1,delta=1
     8                           	psect	bssBANK0,global,class=BANK0,space=1,delta=1
     9                           	psect	bssBANK1,global,class=BANK1,space=1,delta=1
    10                           	psect	bssBANK2,global,class=BANK2,space=1,delta=1
    11                           	psect	cstackBANK1,global,class=BANK1,space=1,delta=1
    12                           	psect	cstackBANK0,global,class=BANK0,space=1,delta=1
    13                           	psect	cstackCOMRAM,global,class=COMRAM,space=1,delta=1
    14                           	psect	text1,global,reloc=2,class=CODE,delta=1
    15                           	psect	text2,global,reloc=2,class=CODE,delta=1
    16                           	psect	text3,global,reloc=2,class=CODE,delta=1
    17                           	psect	text4,global,reloc=2,class=CODE,delta=1
    18                           	psect	text5,global,reloc=2,class=CODE,delta=1
    19                           	psect	text6,global,reloc=2,class=CODE,delta=1
    20                           	psect	text7,global,reloc=2,class=CODE,delta=1
    21                           	psect	text8,global,reloc=2,class=CODE,delta=1
    22                           	psect	text9,global,reloc=2,class=CODE,delta=1
    23                           	psect	text10,global,reloc=2,class=CODE,delta=1
    24                           	psect	text11,global,reloc=2,class=CODE,delta=1
    25                           	psect	text12,global,reloc=2,class=CODE,delta=1
    26                           	psect	text13,global,reloc=2,class=CODE,delta=1
    27                           	psect	text14,global,reloc=2,class=CODE,delta=1
    28                           	psect	text15,global,reloc=2,class=CODE,delta=1
    29                           	psect	text16,global,reloc=2,class=CODE,delta=1
    30                           	psect	text17,global,reloc=2,class=CODE,delta=1
    31                           	psect	text18,global,reloc=2,class=CODE,delta=1
    32                           	psect	text19,global,reloc=2,class=CODE,delta=1
    33                           	psect	text20,global,reloc=2,class=CODE,delta=1
    34                           	psect	text21,global,reloc=2,class=CODE,delta=1
    35                           	psect	text22,global,reloc=2,class=CODE,delta=1
    36                           	psect	text23,global,reloc=2,class=CODE,delta=1
    37                           	psect	text24,global,reloc=2,class=CODE,delta=1
    38                           	psect	text25,global,reloc=2,class=CODE,delta=1
    39                           	psect	text26,global,reloc=2,class=CODE,delta=1
    40                           	psect	text27,global,reloc=2,class=CODE,delta=1
    41                           	psect	text28,global,reloc=2,class=CODE,delta=1
    42                           	psect	intcodelo,global,reloc=2,class=CODE,delta=1
    43                           	psect	text30,global,reloc=2,class=CODE,delta=1
    44                           	psect	text31,global,reloc=2,class=CODE,delta=1
    45                           	psect	intcode,global,reloc=2,class=CODE,delta=1
    46                           	psect	intcode_body,global,reloc=2,class=CODE,delta=1
    47                           	psect	text33,global,reloc=2,class=CODE,delta=1
    48                           	psect	text34,global,reloc=2,class=CODE,delta=1
    49                           	psect	text35,global,reloc=2,class=CODE,delta=1
    50                           	psect	intsave_regs,global,class=BIGRAM,space=1,delta=1
    51                           	psect	rparam,global,class=COMRAM,space=1,delta=1
    52  0000                     _ADCON0	set	4034
    53  0000                     _ADCON0bits	set	4034
    54  0000                     _ADCON1	set	4033
    55  0000                     _ADCON2	set	4032
    56  0000                     _ADCON2bits	set	4032
    57  0000                     _ANCON0	set	3933
    58  0000                     _ANCON1	set	3932
    59  0000                     _BAUDCON1bits	set	4007
    60  0000                     _BAUDCON2bits	set	4025
    61  0000                     _BRGCON1	set	3651
    62  0000                     _BRGCON2	set	3652
    63  0000                     _BRGCON3	set	3653
    64  0000                     _CANCON	set	3951
    65  0000                     _CANSTAT	set	3950
    66  0000                     _CIOCON	set	3952
    67  0000                     _INTCON	set	4082
    68  0000                     _INTCON2	set	4081
    69  0000                     _INTCON3	set	4080
    70  0000                     _INTCONbits	set	4082
    71  0000                     _IPR1	set	3999
    72  0000                     _IPR2	set	4002
    73  0000                     _IPR3	set	4005
    74  0000                     _IPR4	set	4024
    75  0000                     _IPR5	set	3960
    76  0000                     _LATA	set	3977
    77  0000                     _LATAbits	set	3977
    78  0000                     _LATBbits	set	3978
    79  0000                     _LATCbits	set	3979
    80  0000                     _LATDbits	set	3980
    81  0000                     _LATEbits	set	3981
    82  0000                     _OSCCONbits	set	4051
    83  0000                     _PIE1	set	3997
    84  0000                     _PIE1bits	set	3997
    85  0000                     _PIE2	set	4000
    86  0000                     _PIE3	set	4003
    87  0000                     _PIE4	set	4022
    88  0000                     _PIE5	set	3958
    89  0000                     _PIR1	set	3998
    90  0000                     _PIR1bits	set	3998
    91  0000                     _PIR2	set	4001
    92  0000                     _PIR3	set	4004
    93  0000                     _PIR3bits	set	4004
    94  0000                     _PIR4	set	4023
    95  0000                     _PIR5	set	3959
    96  0000                     _PIR5bits	set	3959
    97  0000                     _RCONbits	set	4048
    98  0000                     _RCREG	set	4014
    99  0000                     _RCREG2	set	3962
   100  0000                     _RCSTA1	set	4011
   101  0000                     _RCSTA1bits	set	4011
   102  0000                     _RCSTA2	set	4006
   103  0000                     _RCSTA2bits	set	4006
   104  0000                     _RXF0SIDH	set	3808
   105  0000                     _RXF0SIDL	set	3809
   106  0000                     _RXF1SIDH	set	3812
   107  0000                     _RXF1SIDL	set	3813
   108  0000                     _RXF2SIDH	set	3816
   109  0000                     _RXF2SIDL	set	3817
   110  0000                     _RXF3SIDH	set	3820
   111  0000                     _RXF3SIDL	set	3821
   112  0000                     _RXF4SIDH	set	3824
   113  0000                     _RXF4SIDL	set	3825
   114  0000                     _RXF5SIDH	set	3828
   115  0000                     _RXF5SIDL	set	3829
   116  0000                     _RXM0SIDH	set	3832
   117  0000                     _RXM0SIDL	set	3833
   118  0000                     _RXM1SIDH	set	3836
   119  0000                     _RXM1SIDL	set	3837
   120  0000                     _SPBRG1	set	4015
   121  0000                     _SPBRG2	set	3963
   122  0000                     _SSPBUF	set	4041
   123  0000                     _SSPCON1	set	4038
   124  0000                     _SSPCON1bits	set	4038
   125  0000                     _SSPSTAT	set	4039
   126  0000                     _SSPSTATbits	set	4039
   127  0000                     _T0CONbits	set	4053
   128  0000                     _TMR0H	set	4055
   129  0000                     _TMR0L	set	4054
   130  0000                     _TRISA	set	3986
   131  0000                     _TRISB	set	3987
   132  0000                     _TRISC	set	3988
   133  0000                     _TRISD	set	3989
   134  0000                     _TRISE	set	3990
   135  0000                     _TXB0CONbits	set	3872
   136  0000                     _TXREG1	set	4013
   137  0000                     _TXREG2	set	3961
   138  0000                     _TXSTA1	set	4012
   139  0000                     _TXSTA1bits	set	4012
   140  0000                     _TXSTA2	set	4026
   141  0000                     _TXSTA2bits	set	4026
   142                           
   143 ;;
   144 ;;Main: autosize = 0, tempsize = 3, incstack = 0, save=0
   145 ;;
   146 ;; *************** function _main *****************
   147 ;; Defined at:
   148 ;;		line 47 in file "main.c"
   149 ;; Parameters:    Size  Location     Type
   150 ;;		None
   151 ;; Auto vars:     Size  Location     Type
   152 ;;  i               1    3[BANK1 ] unsigned char 
   153 ;;  i               1    2[BANK1 ] unsigned char 
   154 ;;  CurrentIMUDa   21   18[BANK1 ] struct IMUData
   155 ;;  TempCANTxMsg   14   39[BANK1 ] struct CANTxMsg
   156 ;;  TempCANRxMsg   14    4[BANK1 ] struct CANRxMsg
   157 ;;  TempVar         1    1[BANK1 ] unsigned char 
   158 ;;  IMUAutotestR    1    0[BANK1 ] unsigned char 
   159 ;; Return value:  Size  Location     Type
   160 ;;		None               void
   161 ;; Registers used:
   162 ;;		wreg, fsr0l, fsr0h, fsr1l, fsr1h, fsr2l, fsr2h, status,2, status,0, prodl, prodh, cstack
   163 ;; Tracked objects:
   164 ;;		On entry : 0/0
   165 ;;		On exit  : 0/0
   166 ;;		Unchanged: 0/0
   167 ;; Data sizes:     COMRAM   BANK0   BANK1   BANK2   BANK3   BANK4   BANK5   BANK6   BANK7   BANK8   BANK9  BANK10  BANK1
      +1  BANK12  BANK13  BANK14
   168 ;;      Params:         0       0       0       0       0       0       0       0       0       0       0       0       
      +0       0       0       0
   169 ;;      Locals:         0       0      53       0       0       0       0       0       0       0       0       0       
      +0       0       0       0
   170 ;;      Temps:          0       3       0       0       0       0       0       0       0       0       0       0       
      +0       0       0       0
   171 ;;      Totals:         0       3      53       0       0       0       0       0       0       0       0       0       
      +0       0       0       0
   172 ;;Total ram usage:       56 bytes
   173 ;; Hardware stack levels required when called:    8
   174 ;; This function calls:
   175 ;;		_CANRxFifoInit
   176 ;;		_CANTxFifoInit
   177 ;;		_ConfigureGPIO
   178 ;;		_ConfigureInterrupts
   179 ;;		_ConfigureOscillator
   180 ;;		_ConfigureSPI
   181 ;;		_ConfigureTimers
   182 ;;		_ConfigureUSART1
   183 ;;		_ConfigureUSART2
   184 ;;		_ECANFiltersInit
   185 ;;		_ECANInitialize
   186 ;;		_ECANSendMessage
   187 ;;		_GetCANRxFifo
   188 ;;		_GetCANTxFifo
   189 ;;		_GetUSART1RxFifo
   190 ;;		_GetUSART2RxFifo
   191 ;;		_IMUAutotest
   192 ;;		_IMUInitRegisters
   193 ;;		_IMUUpdateData
   194 ;;		_PutCANTxFifo
   195 ;;		_USART1Write
   196 ;;		_USARTFifoInit
   197 ;; This function is called by:
   198 ;;		Startup code after reset
   199 ;; This function uses a non-reentrant model
   200 ;;
   201                           
   202                           	psect	text0
   203  0000                     _TXB2CON	set	3840
   204  0000                     _TXB1CON	set	3856
   205  0000                     _TXB0CON	set	3872
   206  0000                     _RXB1CON	set	3888
   207  0000                     _RXB0CON	set	3936
   208  0000                     _RXM1EXIDEN	set	30699
   209  0000                     _RXM0EXIDM	set	30667
   210  0000                     _RXB1OVFL	set	31630
   211  0000                     _RXB1IF	set	31673
   212  0000                     _RXB1FUL	set	31111
   213  0000                     _RXB0OVFL	set	31631
   214  0000                     _RXB0IF	set	31672
   215  0000                     _RXB0FUL	set	31495
   216  0000                     _RXB0FILHIT0	set	31488
   217  0000                     _MDSEL1	set	31639
   218  0000                     _MDSEL0	set	31638
   219  0000                     _IRXIF	set	31679
   220  0007F2                     __ptext0:
   221                           	opt stack 0
   222  0000                     
   223                           ; #config settings
   224  0007F2                     _main:
   225                           	opt stack 22
   226                           
   227                           ;main.c: 49: char TempVar;
   228                           ;main.c: 52: unsigned char IMUAutotestResult;
   229                           ;main.c: 55: struct IMUData CurrentIMUData;
   230                           ;main.c: 58: struct CANTxMsg TempCANTxMsg;
   231                           ;main.c: 61: struct CANRxMsg TempCANRxMsg;
   232                           ;main.c: 72: ConfigureOscillator();
   233                           
   234                           ; BSR set to: 0
   235                           ;incstack = 0
   236  0007F2  ECA0  F011         	call	_ConfigureOscillator	;wreg free
   237                           
   238                           ;main.c: 73: _delay((unsigned long)((10)*(64000000/4000.0)));
   239  0007F6  0ED0               	movlw	208
   240  0007F8  0100               	movlb	0	; () banked
   241  0007FA  6FA5               	movwf	??_main& (0+255),b
   242  0007FC  0ECA               	movlw	202
   243  0007FE                     u3377:
   244  0007FE  2EE8               	decfsz	wreg,f,c
   245  000800  D7FE               	goto	u3377
   246  000802  2FA5               	decfsz	??_main& (0+255),f,b
   247  000804  D7FC               	goto	u3377
   248                           
   249                           ;main.c: 77: ConfigureGPIO();
   250  000806  EC7A  F010         	call	_ConfigureGPIO	;wreg free
   251                           
   252                           ;main.c: 80: ConfigureUSART1();
   253  00080A  EC4F  F011         	call	_ConfigureUSART1	;wreg free
   254                           
   255                           ;main.c: 81: ConfigureUSART2();
   256  00080E  EC3D  F011         	call	_ConfigureUSART2	;wreg free
   257                           
   258                           ;main.c: 84: ConfigureSPI();
   259  000812  EC8F  F011         	call	_ConfigureSPI	;wreg free
   260                           
   261                           ;main.c: 87: ECANInitialize();
   262  000816  EC17  F00D         	call	_ECANInitialize	;wreg free
   263                           
   264                           ;main.c: 89: ECANFiltersInit();
   265  00081A  ECCF  F00A         	call	_ECANFiltersInit	;wreg free
   266                           
   267                           ;main.c: 92: ConfigureTimers();
   268  00081E  EC82  F011         	call	_ConfigureTimers	;wreg free
   269                           
   270                           ;main.c: 99: TickCounter.AccelTick_ms=0;
   271  000822  0100               	movlb	0	; () banked
   272  000824  6FA5               	movwf	??_main& (0+255),b
   273  000826  0E00               	movlw	0
   274  000828  6E3B               	movwf	_TickCounter,c
   275  00082A  0100               	movlb	0	; () banked
   276  00082C  51A5               	movf	??_main& (0+255),w,b
   277                           
   278                           ; BSR set to: 0
   279                           ;main.c: 100: TickCounter.GyroTick_ms=1;
   280  00082E  0100               	movlb	0	; () banked
   281  000830  6FA5               	movwf	??_main& (0+255),b
   282  000832  0E01               	movlw	1
   283  000834  6E3C               	movwf	_TickCounter+1,c
   284  000836  0100               	movlb	0	; () banked
   285  000838  51A5               	movf	??_main& (0+255),w,b
   286                           
   287                           ; BSR set to: 0
   288                           ;main.c: 101: TickCounter.MagnetTick_ms=2;
   289  00083A  0100               	movlb	0	; () banked
   290  00083C  6FA5               	movwf	??_main& (0+255),b
   291  00083E  0E02               	movlw	2
   292  000840  6E3D               	movwf	_TickCounter+2,c
   293  000842  0100               	movlb	0	; () banked
   294  000844  51A5               	movf	??_main& (0+255),w,b
   295                           
   296                           ; BSR set to: 0
   297                           ;main.c: 104: CANTxFifoInit();
   298  000846  ECD0  F010         	call	_CANTxFifoInit	;wreg free
   299                           
   300                           ;main.c: 105: CANRxFifoInit();
   301  00084A  ECF1  F010         	call	_CANRxFifoInit	;wreg free
   302                           
   303                           ;main.c: 108: USARTFifoInit ();
   304  00084E  EC0E  F00F         	call	_USARTFifoInit	;wreg free
   305                           
   306                           ;main.c: 115: _delay((unsigned long)((10)*(64000000/4000.0)));
   307  000852  0ED0               	movlw	208
   308  000854  0100               	movlb	0	; () banked
   309  000856  6FA5               	movwf	??_main& (0+255),b
   310  000858  0ECA               	movlw	202
   311  00085A                     u3387:
   312  00085A  2EE8               	decfsz	wreg,f,c
   313  00085C  D7FE               	goto	u3387
   314  00085E  2FA5               	decfsz	??_main& (0+255),f,b
   315  000860  D7FC               	goto	u3387
   316                           
   317                           ;main.c: 117: LATDbits.LATD2 = 0;
   318  000862  948C               	bcf	3980,2,c	;volatile
   319                           
   320                           ;main.c: 119: IMUInitRegisters();
   321  000864  EC34  F009         	call	_IMUInitRegisters	;wreg free
   322                           
   323                           ;main.c: 120: IMUAutotestResult=IMUAutotest();
   324  000868  ECDD  F00D         	call	_IMUAutotest	;wreg free
   325  00086C  0101               	movlb	1	; () banked
   326  00086E  0101               	movlb	1	; () banked
   327  000870  6F90               	movwf	main@IMUAutotestResult& (0+255),b
   328                           
   329                           ; BSR set to: 1
   330                           ;main.c: 127: LATAbits.LATA3=1;
   331  000872  8689               	bsf	3977,3,c	;volatile
   332                           
   333                           ; BSR set to: 1
   334                           ;main.c: 128: for(char i=0;i<200;i++)
   335  000874  0100               	movlb	0	; () banked
   336  000876  6FA5               	movwf	??_main& (0+255),b
   337  000878  0E00               	movlw	0
   338  00087A  0101               	movlb	1	; () banked
   339  00087C  0101               	movlb	1	; () banked
   340  00087E  6F92               	movwf	main@i& (0+255),b
   341  000880  0100               	movlb	0	; () banked
   342  000882  51A5               	movf	??_main& (0+255),w,b
   343  000884  D00B               	goto	L2
   344  000886                     l3504:
   345                           
   346                           ; BSR set to: 1
   347                           ;main.c: 129: {
   348                           ;main.c: 130: _delay((unsigned long)((10)*(64000000/4000.0)));
   349  000886  0ED0               	movlw	208
   350  000888  0100               	movlb	0	; () banked
   351  00088A  6FA5               	movwf	??_main& (0+255),b
   352  00088C  0ECA               	movlw	202
   353  00088E                     u3397:
   354  00088E  2EE8               	decfsz	wreg,f,c
   355  000890  D7FE               	goto	u3397
   356  000892  2FA5               	decfsz	??_main& (0+255),f,b
   357  000894  D7FC               	goto	u3397
   358  000896  0101               	movlb	1	; () banked
   359  000898  0101               	movlb	1	; () banked
   360  00089A  2B92               	incf	main@i& (0+255),f,b
   361  00089C                     L2:
   362                           
   363                           ; BSR set to: 1
   364  00089C  0EC7               	movlw	199
   365  00089E  0101               	movlb	1	; () banked
   366  0008A0  0101               	movlb	1	; () banked
   367  0008A2  6592               	cpfsgt	main@i& (0+255),b
   368  0008A4  D7F0               	goto	l3504
   369                           
   370                           ; BSR set to: 1
   371                           ;main.c: 131: }
   372                           ;main.c: 132: LATAbits.LATA3=0;
   373  0008A6  9689               	bcf	3977,3,c	;volatile
   374                           
   375                           ; BSR set to: 1
   376                           ;main.c: 134: _delay((unsigned long)((10)*(64000000/4000.0)));
   377  0008A8  0ED0               	movlw	208
   378  0008AA  0100               	movlb	0	; () banked
   379  0008AC  6FA5               	movwf	??_main& (0+255),b
   380  0008AE  0ECA               	movlw	202
   381  0008B0                     u3407:
   382  0008B0  2EE8               	decfsz	wreg,f,c
   383  0008B2  D7FE               	goto	u3407
   384  0008B4  2FA5               	decfsz	??_main& (0+255),f,b
   385  0008B6  D7FC               	goto	u3407
   386                           
   387                           ;main.c: 135: _delay((unsigned long)((10)*(64000000/4000.0)));
   388  0008B8  0ED0               	movlw	208
   389  0008BA  0100               	movlb	0	; () banked
   390  0008BC  6FA5               	movwf	??_main& (0+255),b
   391  0008BE  0ECA               	movlw	202
   392  0008C0                     u3417:
   393  0008C0  2EE8               	decfsz	wreg,f,c
   394  0008C2  D7FE               	goto	u3417
   395  0008C4  2FA5               	decfsz	??_main& (0+255),f,b
   396  0008C6  D7FC               	goto	u3417
   397                           
   398                           ;main.c: 143: ConfigureInterrupts();
   399  0008C8  ECA8  F010         	call	_ConfigureInterrupts	;wreg free
   400                           
   401                           ;main.c: 144: LATDbits.LATD0=1;
   402  0008CC  808C               	bsf	3980,0,c	;volatile
   403                           
   404                           ;main.c: 150: USART1Write('A');
   405  0008CE  0E41               	movlw	65
   406  0008D0  EC99  F011         	call	_USART1Write
   407                           
   408                           ;main.c: 151: USART1Write('T');
   409  0008D4  0E54               	movlw	84
   410  0008D6  EC99  F011         	call	_USART1Write
   411                           
   412                           ;main.c: 152: USART1Write(0x0D);
   413  0008DA  0E0D               	movlw	13
   414  0008DC  EC99  F011         	call	_USART1Write
   415                           
   416                           ;main.c: 154: for(char i=0;i<10;i++)
   417  0008E0  0100               	movlb	0	; () banked
   418  0008E2  6FA5               	movwf	??_main& (0+255),b
   419  0008E4  0E00               	movlw	0
   420  0008E6  0101               	movlb	1	; () banked
   421  0008E8  0101               	movlb	1	; () banked
   422  0008EA  6F93               	movwf	main@i_888& (0+255),b
   423  0008EC  0100               	movlb	0	; () banked
   424  0008EE  51A5               	movf	??_main& (0+255),w,b
   425  0008F0  D00B               	goto	L3
   426  0008F2                     l3526:
   427                           
   428                           ; BSR set to: 1
   429                           ;main.c: 155: {
   430                           ;main.c: 156: _delay((unsigned long)((10)*(64000000/4000.0)));
   431  0008F2  0ED0               	movlw	208
   432  0008F4  0100               	movlb	0	; () banked
   433  0008F6  6FA5               	movwf	??_main& (0+255),b
   434  0008F8  0ECA               	movlw	202
   435  0008FA                     u3427:
   436  0008FA  2EE8               	decfsz	wreg,f,c
   437  0008FC  D7FE               	goto	u3427
   438  0008FE  2FA5               	decfsz	??_main& (0+255),f,b
   439  000900  D7FC               	goto	u3427
   440  000902  0101               	movlb	1	; () banked
   441  000904  0101               	movlb	1	; () banked
   442  000906  2B93               	incf	main@i_888& (0+255),f,b
   443  000908                     L3:
   444                           
   445                           ; BSR set to: 1
   446  000908  0E09               	movlw	9
   447  00090A  0101               	movlb	1	; () banked
   448  00090C  0101               	movlb	1	; () banked
   449  00090E  6593               	cpfsgt	main@i_888& (0+255),b
   450  000910  D7F0               	goto	l3526
   451  000912                     l3532:
   452                           
   453                           ;main.c: 165: {
   454                           ;main.c: 171: if(TickCounter.AccelTick_ms>0)
   455  000912  503B               	movf	_TickCounter,w,c
   456  000914  B4D8               	btfsc	status,2,c
   457  000916  D077               	goto	l3568
   458                           
   459                           ;main.c: 172: {
   460                           ;main.c: 174: LATDbits.LATD1=1;
   461  000918  828C               	bsf	3980,1,c	;volatile
   462                           
   463                           ;main.c: 175: TickCounter.AccelTick_ms=0;
   464  00091A  0100               	movlb	0	; () banked
   465  00091C  6FA5               	movwf	??_main& (0+255),b
   466  00091E  0E00               	movlw	0
   467  000920  6E3B               	movwf	_TickCounter,c
   468  000922  0100               	movlb	0	; () banked
   469  000924  51A5               	movf	??_main& (0+255),w,b
   470                           
   471                           ; BSR set to: 0
   472                           ;main.c: 176: CurrentIMUData = IMUUpdateData();
   473  000926  EC75  F000         	call	_IMUUpdateData	;wreg free
   474  00092A  EE21  F0A2         	lfsr	2,main@CurrentIMUData
   475  00092E  0E15               	movlw	21
   476  000930                     u2491:
   477  000930  CFEE FFDE          	movff	postinc0,postinc2
   478  000934  2EE8               	decfsz	wreg,f,c
   479  000936  D7FC               	goto	u2491
   480                           
   481                           ;main.c: 180: TempCANTxMsg.data_TX[0]=(char)(CurrentIMUData.XAccelerationData>>8);
   482  000938  0101               	movlb	1	; () banked
   483  00093A  C1A3  F0A5         	movff	main@CurrentIMUData+1,??_main
   484  00093E  C0A5  F0A6         	movff	??_main,??_main+1
   485  000942  0100               	movlb	0	; () banked
   486  000944  6BA7               	clrf	(??_main+2)& (0+255),b
   487  000946  0100               	movlb	0	; () banked
   488  000948  51A6               	movf	(??_main+1)& (0+255),w,b
   489  00094A  0101               	movlb	1	; () banked
   490  00094C  0101               	movlb	1	; () banked
   491  00094E  6FBB               	movwf	(main@TempCANTxMsg+4)& (0+255),b
   492                           
   493                           ; BSR set to: 1
   494                           ;main.c: 181: TempCANTxMsg.data_TX[1]=(char)(CurrentIMUData.XAccelerationData);
   495  000950  C1A2  F1BC         	movff	main@CurrentIMUData,main@TempCANTxMsg+5
   496                           
   497                           ; BSR set to: 1
   498                           ;main.c: 182: TempCANTxMsg.data_TX[2]=(char)(CurrentIMUData.YAccelerationData>>8);
   499  000954  0101               	movlb	1	; () banked
   500  000956  C1A5  F0A5         	movff	main@CurrentIMUData+3,??_main
   501  00095A  C0A5  F0A6         	movff	??_main,??_main+1
   502  00095E  0100               	movlb	0	; () banked
   503  000960  6BA7               	clrf	(??_main+2)& (0+255),b
   504  000962  0100               	movlb	0	; () banked
   505  000964  51A6               	movf	(??_main+1)& (0+255),w,b
   506  000966  0101               	movlb	1	; () banked
   507  000968  0101               	movlb	1	; () banked
   508  00096A  6FBD               	movwf	(main@TempCANTxMsg+6)& (0+255),b
   509                           
   510                           ; BSR set to: 1
   511                           ;main.c: 183: TempCANTxMsg.data_TX[3]=(char)(CurrentIMUData.YAccelerationData);
   512  00096C  C1A4  F1BE         	movff	main@CurrentIMUData+2,main@TempCANTxMsg+7
   513                           
   514                           ; BSR set to: 1
   515                           ;main.c: 184: TempCANTxMsg.data_TX[4]=(char)(CurrentIMUData.ZAccelerationData>>8);
   516  000970  0101               	movlb	1	; () banked
   517  000972  C1A7  F0A5         	movff	main@CurrentIMUData+5,??_main
   518  000976  C0A5  F0A6         	movff	??_main,??_main+1
   519  00097A  0100               	movlb	0	; () banked
   520  00097C  6BA7               	clrf	(??_main+2)& (0+255),b
   521  00097E  0100               	movlb	0	; () banked
   522  000980  51A6               	movf	(??_main+1)& (0+255),w,b
   523  000982  0101               	movlb	1	; () banked
   524  000984  0101               	movlb	1	; () banked
   525  000986  6FBF               	movwf	(main@TempCANTxMsg+8)& (0+255),b
   526                           
   527                           ; BSR set to: 1
   528                           ;main.c: 185: TempCANTxMsg.data_TX[5]=(char)(CurrentIMUData.ZAccelerationData);
   529  000988  C1A6  F1C0         	movff	main@CurrentIMUData+4,main@TempCANTxMsg+9
   530                           
   531                           ; BSR set to: 1
   532                           ;main.c: 186: TempCANTxMsg.data_TX[6]=0;
   533  00098C  0100               	movlb	0	; () banked
   534  00098E  6FA5               	movwf	??_main& (0+255),b
   535  000990  0E00               	movlw	0
   536  000992  0101               	movlb	1	; () banked
   537  000994  0101               	movlb	1	; () banked
   538  000996  6FC1               	movwf	(main@TempCANTxMsg+10)& (0+255),b
   539  000998  0100               	movlb	0	; () banked
   540  00099A  51A5               	movf	??_main& (0+255),w,b
   541                           
   542                           ; BSR set to: 0
   543                           ;main.c: 187: TempCANTxMsg.data_TX[7]=0;
   544  00099C  0100               	movlb	0	; () banked
   545  00099E  6FA5               	movwf	??_main& (0+255),b
   546  0009A0  0E00               	movlw	0
   547  0009A2  0101               	movlb	1	; () banked
   548  0009A4  0101               	movlb	1	; () banked
   549  0009A6  6FC2               	movwf	(main@TempCANTxMsg+11)& (0+255),b
   550  0009A8  0100               	movlb	0	; () banked
   551  0009AA  51A5               	movf	??_main& (0+255),w,b
   552                           
   553                           ; BSR set to: 0
   554                           ;main.c: 189: TempCANTxMsg.dataLen= 6;
   555  0009AC  0100               	movlb	0	; () banked
   556  0009AE  6FA5               	movwf	??_main& (0+255),b
   557  0009B0  0E06               	movlw	6
   558  0009B2  0101               	movlb	1	; () banked
   559  0009B4  0101               	movlb	1	; () banked
   560  0009B6  6FC3               	movwf	(main@TempCANTxMsg+12)& (0+255),b
   561  0009B8  0100               	movlb	0	; () banked
   562  0009BA  51A5               	movf	??_main& (0+255),w,b
   563                           
   564                           ; BSR set to: 0
   565                           ;main.c: 190: TempCANTxMsg.id = (3 << 7 | 0 <<4 | 0x0 );
   566  0009BC  0E80               	movlw	128
   567  0009BE  0101               	movlb	1	; () banked
   568  0009C0  0101               	movlb	1	; () banked
   569  0009C2  6FB7               	movwf	main@TempCANTxMsg& (0+255),b
   570  0009C4  0E01               	movlw	1
   571  0009C6  0101               	movlb	1	; () banked
   572  0009C8  6FB8               	movwf	(main@TempCANTxMsg+1)& (0+255),b
   573  0009CA  0E00               	movlw	0
   574  0009CC  0101               	movlb	1	; () banked
   575  0009CE  6FB9               	movwf	(main@TempCANTxMsg+2)& (0+255),b
   576  0009D0  0E00               	movlw	0
   577  0009D2  0101               	movlb	1	; () banked
   578  0009D4  6FBA               	movwf	(main@TempCANTxMsg+3)& (0+255),b
   579                           
   580                           ; BSR set to: 1
   581                           ;main.c: 191: TempCANTxMsg.flags = ECAN_TX_STD_FRAME;
   582  0009D6  0100               	movlb	0	; () banked
   583  0009D8  6FA5               	movwf	??_main& (0+255),b
   584  0009DA  0E00               	movlw	0
   585  0009DC  0101               	movlb	1	; () banked
   586  0009DE  0101               	movlb	1	; () banked
   587  0009E0  6FC4               	movwf	(main@TempCANTxMsg+13)& (0+255),b
   588  0009E2  0100               	movlb	0	; () banked
   589  0009E4  51A5               	movf	??_main& (0+255),w,b
   590                           
   591                           ; BSR set to: 0
   592                           ;main.c: 193: if(!CANTxFifo.Fifofull)
   593  0009E6  0101               	movlb	1	; () banked
   594  0009E8  0101               	movlb	1	; () banked
   595  0009EA  678E               	tstfsz	(_CANTxFifo+142)& (0+255),b
   596  0009EC  D00B               	goto	l3566
   597                           
   598                           ; BSR set to: 1
   599                           ;main.c: 194: PutCANTxFifo(TempCANTxMsg);
   600  0009EE  EE21  F0B7         	lfsr	2,main@TempCANTxMsg
   601  0009F2  EE10  F06E         	lfsr	1,PutCANTxFifo@PutMessage
   602  0009F6  0E0E               	movlw	14
   603  0009F8                     u2511:
   604  0009F8  CFDE FFE6          	movff	postinc2,postinc1
   605  0009FC  2EE8               	decfsz	wreg,f,c
   606  0009FE  D7FC               	goto	u2511
   607  000A00  EC3A  F00E         	call	_PutCANTxFifo	;wreg free
   608  000A04                     l3566:
   609                           
   610                           ;main.c: 196: LATDbits.LATD1=0;
   611  000A04  928C               	bcf	3980,1,c	;volatile
   612  000A06                     l3568:
   613                           
   614                           ;main.c: 198: }
   615                           ;main.c: 200: if(TickCounter.GyroTick_ms>0)
   616  000A06  503C               	movf	_TickCounter+1,w,c
   617  000A08  B4D8               	btfsc	status,2,c
   618  000A0A  D05C               	goto	l3592
   619                           
   620                           ;main.c: 201: {
   621                           ;main.c: 203: TickCounter.GyroTick_ms=0;
   622  000A0C  0100               	movlb	0	; () banked
   623  000A0E  6FA5               	movwf	??_main& (0+255),b
   624  000A10  0E00               	movlw	0
   625  000A12  6E3C               	movwf	_TickCounter+1,c
   626  000A14  0100               	movlb	0	; () banked
   627  000A16  51A5               	movf	??_main& (0+255),w,b
   628                           
   629                           ; BSR set to: 0
   630                           ;main.c: 207: TempCANTxMsg.data_TX[0]=(char)(CurrentIMUData.XGyroscopeData>>8);
   631  000A18  0101               	movlb	1	; () banked
   632  000A1A  C1A9  F0A5         	movff	main@CurrentIMUData+7,??_main
   633  000A1E  C0A5  F0A6         	movff	??_main,??_main+1
   634  000A22  0100               	movlb	0	; () banked
   635  000A24  6BA7               	clrf	(??_main+2)& (0+255),b
   636  000A26  0100               	movlb	0	; () banked
   637  000A28  51A6               	movf	(??_main+1)& (0+255),w,b
   638  000A2A  0101               	movlb	1	; () banked
   639  000A2C  0101               	movlb	1	; () banked
   640  000A2E  6FBB               	movwf	(main@TempCANTxMsg+4)& (0+255),b
   641                           
   642                           ; BSR set to: 1
   643                           ;main.c: 208: TempCANTxMsg.data_TX[1]=(char)(CurrentIMUData.XGyroscopeData);
   644  000A30  C1A8  F1BC         	movff	main@CurrentIMUData+6,main@TempCANTxMsg+5
   645                           
   646                           ; BSR set to: 1
   647                           ;main.c: 209: TempCANTxMsg.data_TX[2]=(char)(CurrentIMUData.YGyroscopeData>>8);
   648  000A34  0101               	movlb	1	; () banked
   649  000A36  C1AB  F0A5         	movff	main@CurrentIMUData+9,??_main
   650  000A3A  C0A5  F0A6         	movff	??_main,??_main+1
   651  000A3E  0100               	movlb	0	; () banked
   652  000A40  6BA7               	clrf	(??_main+2)& (0+255),b
   653  000A42  0100               	movlb	0	; () banked
   654  000A44  51A6               	movf	(??_main+1)& (0+255),w,b
   655  000A46  0101               	movlb	1	; () banked
   656  000A48  0101               	movlb	1	; () banked
   657  000A4A  6FBD               	movwf	(main@TempCANTxMsg+6)& (0+255),b
   658                           
   659                           ; BSR set to: 1
   660                           ;main.c: 210: TempCANTxMsg.data_TX[3]=(char)(CurrentIMUData.YGyroscopeData);
   661  000A4C  C1AA  F1BE         	movff	main@CurrentIMUData+8,main@TempCANTxMsg+7
   662                           
   663                           ; BSR set to: 1
   664                           ;main.c: 211: TempCANTxMsg.data_TX[4]=(char)(CurrentIMUData.ZGyroscopeData>>8);
   665  000A50  0101               	movlb	1	; () banked
   666  000A52  C1AD  F0A5         	movff	main@CurrentIMUData+11,??_main
   667  000A56  C0A5  F0A6         	movff	??_main,??_main+1
   668  000A5A  0100               	movlb	0	; () banked
   669  000A5C  6BA7               	clrf	(??_main+2)& (0+255),b
   670  000A5E  0100               	movlb	0	; () banked
   671  000A60  51A6               	movf	(??_main+1)& (0+255),w,b
   672  000A62  0101               	movlb	1	; () banked
   673  000A64  0101               	movlb	1	; () banked
   674  000A66  6FBF               	movwf	(main@TempCANTxMsg+8)& (0+255),b
   675                           
   676                           ; BSR set to: 1
   677                           ;main.c: 212: TempCANTxMsg.data_TX[5]=(char)(CurrentIMUData.ZGyroscopeData);
   678  000A68  C1AC  F1C0         	movff	main@CurrentIMUData+10,main@TempCANTxMsg+9
   679                           
   680                           ; BSR set to: 1
   681                           ;main.c: 214: TempCANTxMsg.dataLen= 6;
   682  000A6C  0100               	movlb	0	; () banked
   683  000A6E  6FA5               	movwf	??_main& (0+255),b
   684  000A70  0E06               	movlw	6
   685  000A72  0101               	movlb	1	; () banked
   686  000A74  0101               	movlb	1	; () banked
   687  000A76  6FC3               	movwf	(main@TempCANTxMsg+12)& (0+255),b
   688  000A78  0100               	movlb	0	; () banked
   689  000A7A  51A5               	movf	??_main& (0+255),w,b
   690                           
   691                           ;main.c: 215: TempCANTxMsg.id = (3 << 7 | 0 <<4 | 0x1 );
   692  000A7C  0E81               	movlw	129
   693  000A7E  0101               	movlb	1	; () banked
   694  000A80  0101               	movlb	1	; () banked
   695  000A82  6FB7               	movwf	main@TempCANTxMsg& (0+255),b
   696  000A84  0E01               	movlw	1
   697  000A86  0101               	movlb	1	; () banked
   698  000A88  6FB8               	movwf	(main@TempCANTxMsg+1)& (0+255),b
   699  000A8A  0E00               	movlw	0
   700  000A8C  0101               	movlb	1	; () banked
   701  000A8E  6FB9               	movwf	(main@TempCANTxMsg+2)& (0+255),b
   702  000A90  0E00               	movlw	0
   703  000A92  0101               	movlb	1	; () banked
   704  000A94  6FBA               	movwf	(main@TempCANTxMsg+3)& (0+255),b
   705                           
   706                           ; BSR set to: 1
   707                           ;main.c: 216: TempCANTxMsg.flags = ECAN_TX_STD_FRAME;
   708  000A96  0100               	movlb	0	; () banked
   709  000A98  6FA5               	movwf	??_main& (0+255),b
   710  000A9A  0E00               	movlw	0
   711  000A9C  0101               	movlb	1	; () banked
   712  000A9E  0101               	movlb	1	; () banked
   713  000AA0  6FC4               	movwf	(main@TempCANTxMsg+13)& (0+255),b
   714  000AA2  0100               	movlb	0	; () banked
   715  000AA4  51A5               	movf	??_main& (0+255),w,b
   716                           
   717                           ; BSR set to: 0
   718                           ;main.c: 218: if(!CANTxFifo.Fifofull)
   719  000AA6  0101               	movlb	1	; () banked
   720  000AA8  0101               	movlb	1	; () banked
   721  000AAA  678E               	tstfsz	(_CANTxFifo+142)& (0+255),b
   722  000AAC  D00B               	goto	l3592
   723                           
   724                           ; BSR set to: 1
   725                           ;main.c: 219: PutCANTxFifo(TempCANTxMsg);
   726  000AAE  EE21  F0B7         	lfsr	2,main@TempCANTxMsg
   727  000AB2  EE10  F06E         	lfsr	1,PutCANTxFifo@PutMessage
   728  000AB6  0E0E               	movlw	14
   729  000AB8                     u2541:
   730  000AB8  CFDE FFE6          	movff	postinc2,postinc1
   731  000ABC  2EE8               	decfsz	wreg,f,c
   732  000ABE  D7FC               	goto	u2541
   733  000AC0  EC3A  F00E         	call	_PutCANTxFifo	;wreg free
   734  000AC4                     l3592:
   735                           
   736                           ;main.c: 222: }
   737                           ;main.c: 224: if(TickCounter.MagnetTick_ms>0)
   738  000AC4  503D               	movf	_TickCounter+2,w,c
   739  000AC6  B4D8               	btfsc	status,2,c
   740  000AC8  D06A               	goto	l3620
   741                           
   742                           ;main.c: 225: {
   743                           ;main.c: 227: TickCounter.MagnetTick_ms=0;
   744  000ACA  0100               	movlb	0	; () banked
   745  000ACC  6FA5               	movwf	??_main& (0+255),b
   746  000ACE  0E00               	movlw	0
   747  000AD0  6E3D               	movwf	_TickCounter+2,c
   748  000AD2  0100               	movlb	0	; () banked
   749  000AD4  51A5               	movf	??_main& (0+255),w,b
   750                           
   751                           ; BSR set to: 0
   752                           ;main.c: 231: TempCANTxMsg.data_TX[0]=(char)(CurrentIMUData.XMagnetData>>8);
   753  000AD6  0101               	movlb	1	; () banked
   754  000AD8  C1AF  F0A5         	movff	main@CurrentIMUData+13,??_main
   755  000ADC  C0A5  F0A6         	movff	??_main,??_main+1
   756  000AE0  0100               	movlb	0	; () banked
   757  000AE2  6BA7               	clrf	(??_main+2)& (0+255),b
   758  000AE4  0100               	movlb	0	; () banked
   759  000AE6  51A6               	movf	(??_main+1)& (0+255),w,b
   760  000AE8  0101               	movlb	1	; () banked
   761  000AEA  0101               	movlb	1	; () banked
   762  000AEC  6FBB               	movwf	(main@TempCANTxMsg+4)& (0+255),b
   763                           
   764                           ; BSR set to: 1
   765                           ;main.c: 232: TempCANTxMsg.data_TX[1]=(char)(CurrentIMUData.XMagnetData);
   766  000AEE  C1AE  F1BC         	movff	main@CurrentIMUData+12,main@TempCANTxMsg+5
   767                           
   768                           ; BSR set to: 1
   769                           ;main.c: 233: TempCANTxMsg.data_TX[2]=(char)(CurrentIMUData.YMagnetData>>8);
   770  000AF2  0101               	movlb	1	; () banked
   771  000AF4  C1B1  F0A5         	movff	main@CurrentIMUData+15,??_main
   772  000AF8  C0A5  F0A6         	movff	??_main,??_main+1
   773  000AFC  0100               	movlb	0	; () banked
   774  000AFE  6BA7               	clrf	(??_main+2)& (0+255),b
   775  000B00  0100               	movlb	0	; () banked
   776  000B02  51A6               	movf	(??_main+1)& (0+255),w,b
   777  000B04  0101               	movlb	1	; () banked
   778  000B06  0101               	movlb	1	; () banked
   779  000B08  6FBD               	movwf	(main@TempCANTxMsg+6)& (0+255),b
   780                           
   781                           ; BSR set to: 1
   782                           ;main.c: 234: TempCANTxMsg.data_TX[3]=(char)(CurrentIMUData.YMagnetData);
   783  000B0A  C1B0  F1BE         	movff	main@CurrentIMUData+14,main@TempCANTxMsg+7
   784                           
   785                           ; BSR set to: 1
   786                           ;main.c: 235: TempCANTxMsg.data_TX[4]=(char)(CurrentIMUData.ZMagnetData>>8);
   787  000B0E  0101               	movlb	1	; () banked
   788  000B10  C1B3  F0A5         	movff	main@CurrentIMUData+17,??_main
   789  000B14  C0A5  F0A6         	movff	??_main,??_main+1
   790  000B18  0100               	movlb	0	; () banked
   791  000B1A  6BA7               	clrf	(??_main+2)& (0+255),b
   792  000B1C  0100               	movlb	0	; () banked
   793  000B1E  51A6               	movf	(??_main+1)& (0+255),w,b
   794  000B20  0101               	movlb	1	; () banked
   795  000B22  0101               	movlb	1	; () banked
   796  000B24  6FBF               	movwf	(main@TempCANTxMsg+8)& (0+255),b
   797                           
   798                           ; BSR set to: 1
   799                           ;main.c: 236: TempCANTxMsg.data_TX[5]=(char)(CurrentIMUData.ZMagnetData);
   800  000B26  C1B2  F1C0         	movff	main@CurrentIMUData+16,main@TempCANTxMsg+9
   801                           
   802                           ; BSR set to: 1
   803                           ;main.c: 237: TempCANTxMsg.data_TX[6]=(char)(CurrentIMUData.MagnetResistance >>8);
   804  000B2A  0101               	movlb	1	; () banked
   805  000B2C  C1B5  F0A5         	movff	main@CurrentIMUData+19,??_main
   806  000B30  C0A5  F0A6         	movff	??_main,??_main+1
   807  000B34  0100               	movlb	0	; () banked
   808  000B36  6BA7               	clrf	(??_main+2)& (0+255),b
   809  000B38  0100               	movlb	0	; () banked
   810  000B3A  51A6               	movf	(??_main+1)& (0+255),w,b
   811  000B3C  0101               	movlb	1	; () banked
   812  000B3E  0101               	movlb	1	; () banked
   813  000B40  6FC1               	movwf	(main@TempCANTxMsg+10)& (0+255),b
   814                           
   815                           ; BSR set to: 1
   816                           ;main.c: 238: TempCANTxMsg.data_TX[7]=(char)(CurrentIMUData.MagnetResistance);
   817  000B42  C1B4  F1C2         	movff	main@CurrentIMUData+18,main@TempCANTxMsg+11
   818                           
   819                           ;main.c: 240: TempCANTxMsg.dataLen= 8;
   820  000B46  0100               	movlb	0	; () banked
   821  000B48  6FA5               	movwf	??_main& (0+255),b
   822  000B4A  0E08               	movlw	8
   823  000B4C  0101               	movlb	1	; () banked
   824  000B4E  0101               	movlb	1	; () banked
   825  000B50  6FC3               	movwf	(main@TempCANTxMsg+12)& (0+255),b
   826  000B52  0100               	movlb	0	; () banked
   827  000B54  51A5               	movf	??_main& (0+255),w,b
   828                           
   829                           ; BSR set to: 0
   830                           ;main.c: 241: TempCANTxMsg.id = (3 << 7 | 0 <<4 | 0x2 );
   831  000B56  0E82               	movlw	130
   832  000B58  0101               	movlb	1	; () banked
   833  000B5A  0101               	movlb	1	; () banked
   834  000B5C  6FB7               	movwf	main@TempCANTxMsg& (0+255),b
   835  000B5E  0E01               	movlw	1
   836  000B60  0101               	movlb	1	; () banked
   837  000B62  6FB8               	movwf	(main@TempCANTxMsg+1)& (0+255),b
   838  000B64  0E00               	movlw	0
   839  000B66  0101               	movlb	1	; () banked
   840  000B68  6FB9               	movwf	(main@TempCANTxMsg+2)& (0+255),b
   841  000B6A  0E00               	movlw	0
   842  000B6C  0101               	movlb	1	; () banked
   843  000B6E  6FBA               	movwf	(main@TempCANTxMsg+3)& (0+255),b
   844                           
   845                           ; BSR set to: 1
   846                           ;main.c: 242: TempCANTxMsg.flags = ECAN_TX_STD_FRAME;
   847  000B70  0100               	movlb	0	; () banked
   848  000B72  6FA5               	movwf	??_main& (0+255),b
   849  000B74  0E00               	movlw	0
   850  000B76  0101               	movlb	1	; () banked
   851  000B78  0101               	movlb	1	; () banked
   852  000B7A  6FC4               	movwf	(main@TempCANTxMsg+13)& (0+255),b
   853  000B7C  0100               	movlb	0	; () banked
   854  000B7E  51A5               	movf	??_main& (0+255),w,b
   855                           
   856                           ; BSR set to: 0
   857                           ;main.c: 244: if(!CANTxFifo.Fifofull)
   858  000B80  0101               	movlb	1	; () banked
   859  000B82  0101               	movlb	1	; () banked
   860  000B84  678E               	tstfsz	(_CANTxFifo+142)& (0+255),b
   861  000B86  D00B               	goto	l3620
   862                           
   863                           ; BSR set to: 1
   864                           ;main.c: 245: PutCANTxFifo(TempCANTxMsg);
   865  000B88  EE21  F0B7         	lfsr	2,main@TempCANTxMsg
   866  000B8C  EE10  F06E         	lfsr	1,PutCANTxFifo@PutMessage
   867  000B90  0E0E               	movlw	14
   868  000B92                     u2571:
   869  000B92  CFDE FFE6          	movff	postinc2,postinc1
   870  000B96  2EE8               	decfsz	wreg,f,c
   871  000B98  D7FC               	goto	u2571
   872  000B9A  EC3A  F00E         	call	_PutCANTxFifo	;wreg free
   873  000B9E                     l3620:
   874                           
   875                           ;main.c: 248: }
   876                           ;main.c: 258: if(!CANRxFifo.FifoEmpty && !CANTxFifo.Fifofull)
   877  000B9E  0102               	movlb	2	; () banked
   878  000BA0  0102               	movlb	2	; () banked
   879  000BA2  678F               	tstfsz	(_CANRxFifo+143)& (0+255),b
   880  000BA4  D0EC               	goto	l3670
   881                           
   882                           ; BSR set to: 2
   883  000BA6  0101               	movlb	1	; () banked
   884  000BA8  0101               	movlb	1	; () banked
   885  000BAA  678E               	tstfsz	(_CANTxFifo+142)& (0+255),b
   886  000BAC  D0E8               	goto	l3670
   887                           
   888                           ; BSR set to: 1
   889                           ;main.c: 259: {
   890                           ;main.c: 260: TempCANRxMsg = GetCANRxFifo();
   891  000BAE  ECA9  F00C         	call	_GetCANRxFifo	;wreg free
   892  000BB2  EE21  F094         	lfsr	2,main@TempCANRxMsg
   893  000BB6  0E0E               	movlw	14
   894  000BB8                     u2601:
   895  000BB8  CFEE FFDE          	movff	postinc0,postinc2
   896  000BBC  2EE8               	decfsz	wreg,f,c
   897  000BBE  D7FC               	goto	u2601
   898                           
   899                           ;main.c: 264: if( TempCANRxMsg.id == (3 << 7 | 0 <<4 | 0x4 ) && TempCANRxMsg.flags== ECA
      +                          N_RX_RTR_FRAME )
   900  000BC0  0101               	movlb	1	; () banked
   901  000BC2  0101               	movlb	1	; () banked
   902  000BC4  0595               	decf	(main@TempCANRxMsg+1)& (0+255),w,b
   903  000BC6  0E84               	movlw	132
   904  000BC8  B4D8               	btfsc	status,2,c
   905  000BCA  1994               	xorwf	main@TempCANRxMsg& (0+255),w,b
   906  000BCC  1196               	iorwf	(main@TempCANRxMsg+2)& (0+255),w,b
   907  000BCE  1197               	iorwf	(main@TempCANRxMsg+3)& (0+255),w,b
   908  000BD0  A4D8               	btfss	status,2,c
   909  000BD2  D03E               	goto	l3638
   910                           
   911                           ; BSR set to: 1
   912  000BD4  0101               	movlb	1	; () banked
   913  000BD6  0101               	movlb	1	; () banked
   914  000BD8  51A1               	movf	(main@TempCANRxMsg+13)& (0+255),w,b
   915  000BDA  0A40               	xorlw	64
   916  000BDC  A4D8               	btfss	status,2,c
   917  000BDE  D038               	goto	l3638
   918                           
   919                           ; BSR set to: 1
   920                           ;main.c: 265: {
   921                           ;main.c: 266: TempCANTxMsg.data_TX[0]=1;
   922  000BE0  0100               	movlb	0	; () banked
   923  000BE2  6FA5               	movwf	??_main& (0+255),b
   924  000BE4  0E01               	movlw	1
   925  000BE6  0101               	movlb	1	; () banked
   926  000BE8  0101               	movlb	1	; () banked
   927  000BEA  6FBB               	movwf	(main@TempCANTxMsg+4)& (0+255),b
   928  000BEC  0100               	movlb	0	; () banked
   929  000BEE  51A5               	movf	??_main& (0+255),w,b
   930                           
   931                           ;main.c: 267: TempCANTxMsg.data_TX[1]=1;
   932  000BF0  0100               	movlb	0	; () banked
   933  000BF2  6FA5               	movwf	??_main& (0+255),b
   934  000BF4  0E01               	movlw	1
   935  000BF6  0101               	movlb	1	; () banked
   936  000BF8  0101               	movlb	1	; () banked
   937  000BFA  6FBC               	movwf	(main@TempCANTxMsg+5)& (0+255),b
   938  000BFC  0100               	movlb	0	; () banked
   939  000BFE  51A5               	movf	??_main& (0+255),w,b
   940                           
   941                           ;main.c: 268: TempCANTxMsg.dataLen= 2;
   942  000C00  0100               	movlb	0	; () banked
   943  000C02  6FA5               	movwf	??_main& (0+255),b
   944  000C04  0E02               	movlw	2
   945  000C06  0101               	movlb	1	; () banked
   946  000C08  0101               	movlb	1	; () banked
   947  000C0A  6FC3               	movwf	(main@TempCANTxMsg+12)& (0+255),b
   948  000C0C  0100               	movlb	0	; () banked
   949  000C0E  51A5               	movf	??_main& (0+255),w,b
   950                           
   951                           ; BSR set to: 0
   952                           ;main.c: 269: TempCANTxMsg.id = (3 << 7 | 0 <<4 | 0x4 );
   953  000C10  0E84               	movlw	132
   954  000C12  0101               	movlb	1	; () banked
   955  000C14  0101               	movlb	1	; () banked
   956  000C16  6FB7               	movwf	main@TempCANTxMsg& (0+255),b
   957  000C18  0E01               	movlw	1
   958  000C1A  0101               	movlb	1	; () banked
   959  000C1C  6FB8               	movwf	(main@TempCANTxMsg+1)& (0+255),b
   960  000C1E  0E00               	movlw	0
   961  000C20  0101               	movlb	1	; () banked
   962  000C22  6FB9               	movwf	(main@TempCANTxMsg+2)& (0+255),b
   963  000C24  0E00               	movlw	0
   964  000C26  0101               	movlb	1	; () banked
   965  000C28  6FBA               	movwf	(main@TempCANTxMsg+3)& (0+255),b
   966                           
   967                           ; BSR set to: 1
   968                           ;main.c: 270: TempCANTxMsg.flags = ECAN_TX_STD_FRAME;
   969  000C2A  0100               	movlb	0	; () banked
   970  000C2C  6FA5               	movwf	??_main& (0+255),b
   971  000C2E  0E00               	movlw	0
   972  000C30  0101               	movlb	1	; () banked
   973  000C32  0101               	movlb	1	; () banked
   974  000C34  6FC4               	movwf	(main@TempCANTxMsg+13)& (0+255),b
   975  000C36  0100               	movlb	0	; () banked
   976  000C38  51A5               	movf	??_main& (0+255),w,b
   977                           
   978                           ; BSR set to: 0
   979                           ;main.c: 271: PutCANTxFifo(TempCANTxMsg);
   980  000C3A  EE21  F0B7         	lfsr	2,main@TempCANTxMsg
   981  000C3E  EE10  F06E         	lfsr	1,PutCANTxFifo@PutMessage
   982  000C42  0E0E               	movlw	14
   983  000C44                     u2631:
   984  000C44  CFDE FFE6          	movff	postinc2,postinc1
   985  000C48  2EE8               	decfsz	wreg,f,c
   986  000C4A  D7FC               	goto	u2631
   987  000C4C  EC3A  F00E         	call	_PutCANTxFifo	;wreg free
   988  000C50                     l3638:
   989                           
   990                           ;main.c: 272: }
   991                           ;main.c: 276: if( TempCANRxMsg.id == (3 << 7 | 0 <<4 | 0xF ) && TempCANRxMsg.flags== ECA
      +                          N_RX_RTR_FRAME )
   992  000C50  0101               	movlb	1	; () banked
   993  000C52  0101               	movlb	1	; () banked
   994  000C54  0595               	decf	(main@TempCANRxMsg+1)& (0+255),w,b
   995  000C56  0E8F               	movlw	143
   996  000C58  B4D8               	btfsc	status,2,c
   997  000C5A  1994               	xorwf	main@TempCANRxMsg& (0+255),w,b
   998  000C5C  1196               	iorwf	(main@TempCANRxMsg+2)& (0+255),w,b
   999  000C5E  1197               	iorwf	(main@TempCANRxMsg+3)& (0+255),w,b
  1000  000C60  A4D8               	btfss	status,2,c
  1001  000C62  D03E               	goto	l3650
  1002                           
  1003                           ; BSR set to: 1
  1004  000C64  0101               	movlb	1	; () banked
  1005  000C66  0101               	movlb	1	; () banked
  1006  000C68  51A1               	movf	(main@TempCANRxMsg+13)& (0+255),w,b
  1007  000C6A  0A40               	xorlw	64
  1008  000C6C  A4D8               	btfss	status,2,c
  1009  000C6E  D038               	goto	l3650
  1010                           
  1011                           ; BSR set to: 1
  1012                           ;main.c: 277: {
  1013                           ;main.c: 278: TempCANTxMsg.data_TX[0]=1;
  1014  000C70  0100               	movlb	0	; () banked
  1015  000C72  6FA5               	movwf	??_main& (0+255),b
  1016  000C74  0E01               	movlw	1
  1017  000C76  0101               	movlb	1	; () banked
  1018  000C78  0101               	movlb	1	; () banked
  1019  000C7A  6FBB               	movwf	(main@TempCANTxMsg+4)& (0+255),b
  1020  000C7C  0100               	movlb	0	; () banked
  1021  000C7E  51A5               	movf	??_main& (0+255),w,b
  1022                           
  1023                           ;main.c: 279: TempCANTxMsg.data_TX[1]=1;
  1024  000C80  0100               	movlb	0	; () banked
  1025  000C82  6FA5               	movwf	??_main& (0+255),b
  1026  000C84  0E01               	movlw	1
  1027  000C86  0101               	movlb	1	; () banked
  1028  000C88  0101               	movlb	1	; () banked
  1029  000C8A  6FBC               	movwf	(main@TempCANTxMsg+5)& (0+255),b
  1030  000C8C  0100               	movlb	0	; () banked
  1031  000C8E  51A5               	movf	??_main& (0+255),w,b
  1032                           
  1033                           ;main.c: 280: TempCANTxMsg.dataLen= 2;
  1034  000C90  0100               	movlb	0	; () banked
  1035  000C92  6FA5               	movwf	??_main& (0+255),b
  1036  000C94  0E02               	movlw	2
  1037  000C96  0101               	movlb	1	; () banked
  1038  000C98  0101               	movlb	1	; () banked
  1039  000C9A  6FC3               	movwf	(main@TempCANTxMsg+12)& (0+255),b
  1040  000C9C  0100               	movlb	0	; () banked
  1041  000C9E  51A5               	movf	??_main& (0+255),w,b
  1042                           
  1043                           ; BSR set to: 0
  1044                           ;main.c: 281: TempCANTxMsg.id = (3 << 7 | 0 <<4 | 0xF );
  1045  000CA0  0E8F               	movlw	143
  1046  000CA2  0101               	movlb	1	; () banked
  1047  000CA4  0101               	movlb	1	; () banked
  1048  000CA6  6FB7               	movwf	main@TempCANTxMsg& (0+255),b
  1049  000CA8  0E01               	movlw	1
  1050  000CAA  0101               	movlb	1	; () banked
  1051  000CAC  6FB8               	movwf	(main@TempCANTxMsg+1)& (0+255),b
  1052  000CAE  0E00               	movlw	0
  1053  000CB0  0101               	movlb	1	; () banked
  1054  000CB2  6FB9               	movwf	(main@TempCANTxMsg+2)& (0+255),b
  1055  000CB4  0E00               	movlw	0
  1056  000CB6  0101               	movlb	1	; () banked
  1057  000CB8  6FBA               	movwf	(main@TempCANTxMsg+3)& (0+255),b
  1058                           
  1059                           ; BSR set to: 1
  1060                           ;main.c: 282: TempCANTxMsg.flags = ECAN_TX_STD_FRAME;
  1061  000CBA  0100               	movlb	0	; () banked
  1062  000CBC  6FA5               	movwf	??_main& (0+255),b
  1063  000CBE  0E00               	movlw	0
  1064  000CC0  0101               	movlb	1	; () banked
  1065  000CC2  0101               	movlb	1	; () banked
  1066  000CC4  6FC4               	movwf	(main@TempCANTxMsg+13)& (0+255),b
  1067  000CC6  0100               	movlb	0	; () banked
  1068  000CC8  51A5               	movf	??_main& (0+255),w,b
  1069                           
  1070                           ; BSR set to: 0
  1071                           ;main.c: 283: PutCANTxFifo(TempCANTxMsg);
  1072  000CCA  EE21  F0B7         	lfsr	2,main@TempCANTxMsg
  1073  000CCE  EE10  F06E         	lfsr	1,PutCANTxFifo@PutMessage
  1074  000CD2  0E0E               	movlw	14
  1075  000CD4                     u2661:
  1076  000CD4  CFDE FFE6          	movff	postinc2,postinc1
  1077  000CD8  2EE8               	decfsz	wreg,f,c
  1078  000CDA  D7FC               	goto	u2661
  1079  000CDC  EC3A  F00E         	call	_PutCANTxFifo	;wreg free
  1080  000CE0                     l3650:
  1081                           
  1082                           ;main.c: 284: }
  1083                           ;main.c: 288: if( TempCANRxMsg.id == (3 << 7 | 0 <<4 | 0x3 ) && TempCANRxMsg.flags== ECA
      +                          N_RX_RTR_FRAME )
  1084  000CE0  0101               	movlb	1	; () banked
  1085  000CE2  0101               	movlb	1	; () banked
  1086  000CE4  0595               	decf	(main@TempCANRxMsg+1)& (0+255),w,b
  1087  000CE6  0E83               	movlw	131
  1088  000CE8  B4D8               	btfsc	status,2,c
  1089  000CEA  1994               	xorwf	main@TempCANRxMsg& (0+255),w,b
  1090  000CEC  1196               	iorwf	(main@TempCANRxMsg+2)& (0+255),w,b
  1091  000CEE  1197               	iorwf	(main@TempCANRxMsg+3)& (0+255),w,b
  1092  000CF0  A4D8               	btfss	status,2,c
  1093  000CF2  D030               	goto	l3664
  1094                           
  1095                           ; BSR set to: 1
  1096  000CF4  0101               	movlb	1	; () banked
  1097  000CF6  0101               	movlb	1	; () banked
  1098  000CF8  51A1               	movf	(main@TempCANRxMsg+13)& (0+255),w,b
  1099  000CFA  0A40               	xorlw	64
  1100  000CFC  A4D8               	btfss	status,2,c
  1101  000CFE  D02A               	goto	l3664
  1102                           
  1103                           ; BSR set to: 1
  1104                           ;main.c: 289: {
  1105                           ;main.c: 290: TempCANTxMsg.data_TX[0]=CurrentIMUData.Temperature;
  1106  000D00  C1B6  F1BB         	movff	main@CurrentIMUData+20,main@TempCANTxMsg+4
  1107                           
  1108                           ; BSR set to: 1
  1109                           ;main.c: 291: TempCANTxMsg.dataLen= 1;
  1110  000D04  0100               	movlb	0	; () banked
  1111  000D06  6FA5               	movwf	??_main& (0+255),b
  1112  000D08  0E01               	movlw	1
  1113  000D0A  0101               	movlb	1	; () banked
  1114  000D0C  0101               	movlb	1	; () banked
  1115  000D0E  6FC3               	movwf	(main@TempCANTxMsg+12)& (0+255),b
  1116  000D10  0100               	movlb	0	; () banked
  1117  000D12  51A5               	movf	??_main& (0+255),w,b
  1118                           
  1119                           ; BSR set to: 0
  1120                           ;main.c: 292: TempCANTxMsg.id = (3 << 7 | 0 <<4 | 0x3 );
  1121  000D14  0E83               	movlw	131
  1122  000D16  0101               	movlb	1	; () banked
  1123  000D18  0101               	movlb	1	; () banked
  1124  000D1A  6FB7               	movwf	main@TempCANTxMsg& (0+255),b
  1125  000D1C  0E01               	movlw	1
  1126  000D1E  0101               	movlb	1	; () banked
  1127  000D20  6FB8               	movwf	(main@TempCANTxMsg+1)& (0+255),b
  1128  000D22  0E00               	movlw	0
  1129  000D24  0101               	movlb	1	; () banked
  1130  000D26  6FB9               	movwf	(main@TempCANTxMsg+2)& (0+255),b
  1131  000D28  0E00               	movlw	0
  1132  000D2A  0101               	movlb	1	; () banked
  1133  000D2C  6FBA               	movwf	(main@TempCANTxMsg+3)& (0+255),b
  1134                           
  1135                           ; BSR set to: 1
  1136                           ;main.c: 293: TempCANTxMsg.flags = ECAN_TX_STD_FRAME;
  1137  000D2E  0100               	movlb	0	; () banked
  1138  000D30  6FA5               	movwf	??_main& (0+255),b
  1139  000D32  0E00               	movlw	0
  1140  000D34  0101               	movlb	1	; () banked
  1141  000D36  0101               	movlb	1	; () banked
  1142  000D38  6FC4               	movwf	(main@TempCANTxMsg+13)& (0+255),b
  1143  000D3A  0100               	movlb	0	; () banked
  1144  000D3C  51A5               	movf	??_main& (0+255),w,b
  1145                           
  1146                           ; BSR set to: 0
  1147                           ;main.c: 294: PutCANTxFifo(TempCANTxMsg);
  1148  000D3E  EE21  F0B7         	lfsr	2,main@TempCANTxMsg
  1149  000D42  EE10  F06E         	lfsr	1,PutCANTxFifo@PutMessage
  1150  000D46  0E0E               	movlw	14
  1151  000D48                     u2691:
  1152  000D48  CFDE FFE6          	movff	postinc2,postinc1
  1153  000D4C  2EE8               	decfsz	wreg,f,c
  1154  000D4E  D7FC               	goto	u2691
  1155  000D50  EC3A  F00E         	call	_PutCANTxFifo	;wreg free
  1156  000D54                     l3664:
  1157                           
  1158                           ;main.c: 295: }
  1159                           ;main.c: 299: if( TempCANRxMsg.id == (5 << 7 | 0 <<4 | 0x1 ) && TempCANRxMsg.dataLen==1 )
  1160  000D54  0101               	movlb	1	; () banked
  1161  000D56  0101               	movlb	1	; () banked
  1162  000D58  5195               	movf	(main@TempCANRxMsg+1)& (0+255),w,b
  1163  000D5A  0A02               	xorlw	2
  1164  000D5C  0E81               	movlw	129
  1165  000D5E  B4D8               	btfsc	status,2,c
  1166  000D60  1994               	xorwf	main@TempCANRxMsg& (0+255),w,b
  1167  000D62  1196               	iorwf	(main@TempCANRxMsg+2)& (0+255),w,b
  1168  000D64  1197               	iorwf	(main@TempCANRxMsg+3)& (0+255),w,b
  1169  000D66  A4D8               	btfss	status,2,c
  1170  000D68  D00A               	goto	l3670
  1171                           
  1172                           ; BSR set to: 1
  1173  000D6A  0101               	movlb	1	; () banked
  1174  000D6C  0101               	movlb	1	; () banked
  1175  000D6E  05A0               	decf	(main@TempCANRxMsg+12)& (0+255),w,b
  1176  000D70  A4D8               	btfss	status,2,c
  1177  000D72  D005               	goto	l3670
  1178                           
  1179                           ; BSR set to: 1
  1180                           ;main.c: 300: {
  1181                           ;main.c: 301: USART1Write(TempCANRxMsg.data_RX[0]);
  1182  000D74  0101               	movlb	1	; () banked
  1183  000D76  0101               	movlb	1	; () banked
  1184  000D78  5198               	movf	(main@TempCANRxMsg+4)& (0+255),w,b
  1185  000D7A  EC99  F011         	call	_USART1Write
  1186  000D7E                     l3670:
  1187                           
  1188                           ;main.c: 302: }
  1189                           ;main.c: 304: }
  1190                           ;main.c: 311: if(!USART2RxFifo.FifoEmpty && !CANTxFifo.Fifofull)
  1191  000D7E  0100               	movlb	0	; () banked
  1192  000D80  0100               	movlb	0	; () banked
  1193  000D82  67C3               	tstfsz	(_USART2RxFifo+13)& (0+255),b
  1194  000D84  D033               	goto	l3686
  1195                           
  1196                           ; BSR set to: 0
  1197  000D86  0101               	movlb	1	; () banked
  1198  000D88  0101               	movlb	1	; () banked
  1199  000D8A  678E               	tstfsz	(_CANTxFifo+142)& (0+255),b
  1200  000D8C  D02F               	goto	l3686
  1201                           
  1202                           ; BSR set to: 1
  1203                           ;main.c: 312: {
  1204                           ;main.c: 313: TempVar = GetUSART2RxFifo();
  1205  000D8E  EC84  F00E         	call	_GetUSART2RxFifo	;wreg free
  1206  000D92  0101               	movlb	1	; () banked
  1207  000D94  0101               	movlb	1	; () banked
  1208  000D96  6F91               	movwf	main@TempVar& (0+255),b
  1209                           
  1210                           ; BSR set to: 1
  1211                           ;main.c: 315: TempCANTxMsg.data_TX[0]=TempVar;
  1212  000D98  C191  F1BB         	movff	main@TempVar,main@TempCANTxMsg+4
  1213                           
  1214                           ; BSR set to: 1
  1215                           ;main.c: 316: TempCANTxMsg.dataLen= 1;
  1216  000D9C  0100               	movlb	0	; () banked
  1217  000D9E  6FA5               	movwf	??_main& (0+255),b
  1218  000DA0  0E01               	movlw	1
  1219  000DA2  0101               	movlb	1	; () banked
  1220  000DA4  0101               	movlb	1	; () banked
  1221  000DA6  6FC3               	movwf	(main@TempCANTxMsg+12)& (0+255),b
  1222  000DA8  0100               	movlb	0	; () banked
  1223  000DAA  51A5               	movf	??_main& (0+255),w,b
  1224                           
  1225                           ; BSR set to: 0
  1226                           ;main.c: 317: TempCANTxMsg.id = (4 << 7 | 0 <<4 | 0x0 );
  1227  000DAC  0E00               	movlw	0
  1228  000DAE  0101               	movlb	1	; () banked
  1229  000DB0  0101               	movlb	1	; () banked
  1230  000DB2  6FB7               	movwf	main@TempCANTxMsg& (0+255),b
  1231  000DB4  0E02               	movlw	2
  1232  000DB6  0101               	movlb	1	; () banked
  1233  000DB8  6FB8               	movwf	(main@TempCANTxMsg+1)& (0+255),b
  1234  000DBA  0E00               	movlw	0
  1235  000DBC  0101               	movlb	1	; () banked
  1236  000DBE  6FB9               	movwf	(main@TempCANTxMsg+2)& (0+255),b
  1237  000DC0  0E00               	movlw	0
  1238  000DC2  0101               	movlb	1	; () banked
  1239  000DC4  6FBA               	movwf	(main@TempCANTxMsg+3)& (0+255),b
  1240                           
  1241                           ; BSR set to: 1
  1242                           ;main.c: 318: TempCANTxMsg.flags = ECAN_TX_STD_FRAME;
  1243  000DC6  0100               	movlb	0	; () banked
  1244  000DC8  6FA5               	movwf	??_main& (0+255),b
  1245  000DCA  0E00               	movlw	0
  1246  000DCC  0101               	movlb	1	; () banked
  1247  000DCE  0101               	movlb	1	; () banked
  1248  000DD0  6FC4               	movwf	(main@TempCANTxMsg+13)& (0+255),b
  1249  000DD2  0100               	movlb	0	; () banked
  1250  000DD4  51A5               	movf	??_main& (0+255),w,b
  1251                           
  1252                           ; BSR set to: 0
  1253                           ;main.c: 320: PutCANTxFifo(TempCANTxMsg);
  1254  000DD6  EE21  F0B7         	lfsr	2,main@TempCANTxMsg
  1255  000DDA  EE10  F06E         	lfsr	1,PutCANTxFifo@PutMessage
  1256  000DDE  0E0E               	movlw	14
  1257  000DE0                     u2741:
  1258  000DE0  CFDE FFE6          	movff	postinc2,postinc1
  1259  000DE4  2EE8               	decfsz	wreg,f,c
  1260  000DE6  D7FC               	goto	u2741
  1261  000DE8  EC3A  F00E         	call	_PutCANTxFifo	;wreg free
  1262  000DEC                     l3686:
  1263                           
  1264                           ;main.c: 322: }
  1265                           ;main.c: 328: if(!USART1RxFifo.FifoEmpty && !CANTxFifo.Fifofull)
  1266  000DEC  0100               	movlb	0	; () banked
  1267  000DEE  0100               	movlb	0	; () banked
  1268  000DF0  67B5               	tstfsz	(_USART1RxFifo+13)& (0+255),b
  1269  000DF2  D033               	goto	l3702
  1270                           
  1271                           ; BSR set to: 0
  1272  000DF4  0101               	movlb	1	; () banked
  1273  000DF6  0101               	movlb	1	; () banked
  1274  000DF8  678E               	tstfsz	(_CANTxFifo+142)& (0+255),b
  1275  000DFA  D02F               	goto	l3702
  1276                           
  1277                           ; BSR set to: 1
  1278                           ;main.c: 329: {
  1279                           ;main.c: 330: TempVar = GetUSART1RxFifo();
  1280  000DFC  ECC9  F00E         	call	_GetUSART1RxFifo	;wreg free
  1281  000E00  0101               	movlb	1	; () banked
  1282  000E02  0101               	movlb	1	; () banked
  1283  000E04  6F91               	movwf	main@TempVar& (0+255),b
  1284                           
  1285                           ; BSR set to: 1
  1286                           ;main.c: 331: TempCANTxMsg.data_TX[0]=TempVar;
  1287  000E06  C191  F1BB         	movff	main@TempVar,main@TempCANTxMsg+4
  1288                           
  1289                           ; BSR set to: 1
  1290                           ;main.c: 332: TempCANTxMsg.dataLen= 1;
  1291  000E0A  0100               	movlb	0	; () banked
  1292  000E0C  6FA5               	movwf	??_main& (0+255),b
  1293  000E0E  0E01               	movlw	1
  1294  000E10  0101               	movlb	1	; () banked
  1295  000E12  0101               	movlb	1	; () banked
  1296  000E14  6FC3               	movwf	(main@TempCANTxMsg+12)& (0+255),b
  1297  000E16  0100               	movlb	0	; () banked
  1298  000E18  51A5               	movf	??_main& (0+255),w,b
  1299                           
  1300                           ; BSR set to: 0
  1301                           ;main.c: 333: TempCANTxMsg.id = (5 << 7 | 0 <<4 | 0x0 );
  1302  000E1A  0E80               	movlw	128
  1303  000E1C  0101               	movlb	1	; () banked
  1304  000E1E  0101               	movlb	1	; () banked
  1305  000E20  6FB7               	movwf	main@TempCANTxMsg& (0+255),b
  1306  000E22  0E02               	movlw	2
  1307  000E24  0101               	movlb	1	; () banked
  1308  000E26  6FB8               	movwf	(main@TempCANTxMsg+1)& (0+255),b
  1309  000E28  0E00               	movlw	0
  1310  000E2A  0101               	movlb	1	; () banked
  1311  000E2C  6FB9               	movwf	(main@TempCANTxMsg+2)& (0+255),b
  1312  000E2E  0E00               	movlw	0
  1313  000E30  0101               	movlb	1	; () banked
  1314  000E32  6FBA               	movwf	(main@TempCANTxMsg+3)& (0+255),b
  1315                           
  1316                           ; BSR set to: 1
  1317                           ;main.c: 334: TempCANTxMsg.flags = ECAN_TX_STD_FRAME;
  1318  000E34  0100               	movlb	0	; () banked
  1319  000E36  6FA5               	movwf	??_main& (0+255),b
  1320  000E38  0E00               	movlw	0
  1321  000E3A  0101               	movlb	1	; () banked
  1322  000E3C  0101               	movlb	1	; () banked
  1323  000E3E  6FC4               	movwf	(main@TempCANTxMsg+13)& (0+255),b
  1324  000E40  0100               	movlb	0	; () banked
  1325  000E42  51A5               	movf	??_main& (0+255),w,b
  1326                           
  1327                           ; BSR set to: 0
  1328                           ;main.c: 335: PutCANTxFifo(TempCANTxMsg);
  1329  000E44  EE21  F0B7         	lfsr	2,main@TempCANTxMsg
  1330  000E48  EE10  F06E         	lfsr	1,PutCANTxFifo@PutMessage
  1331  000E4C  0E0E               	movlw	14
  1332  000E4E                     u2771:
  1333  000E4E  CFDE FFE6          	movff	postinc2,postinc1
  1334  000E52  2EE8               	decfsz	wreg,f,c
  1335  000E54  D7FC               	goto	u2771
  1336  000E56  EC3A  F00E         	call	_PutCANTxFifo	;wreg free
  1337  000E5A                     l3702:
  1338                           
  1339                           ;main.c: 336: }
  1340                           ;main.c: 342: if(!CANTxFifo.FifoEmpty && !TXB0CONbits.TXREQ)
  1341  000E5A  0101               	movlb	1	; () banked
  1342  000E5C  0101               	movlb	1	; () banked
  1343  000E5E  678F               	tstfsz	(_CANTxFifo+143)& (0+255),b
  1344  000E60  D558               	goto	l3532
  1345                           
  1346                           ; BSR set to: 1
  1347  000E62  010F               	movlb	15	; () banked
  1348  000E64  B720               	btfsc	32,3,b	;volatile
  1349  000E66  D555               	goto	l3532
  1350                           
  1351                           ; BSR set to: 15
  1352                           ;main.c: 343: {
  1353                           ;main.c: 344: LATDbits.LATD1=1;
  1354  000E68  828C               	bsf	3980,1,c	;volatile
  1355                           
  1356                           ; BSR set to: 15
  1357                           ;main.c: 345: TempCANTxMsg=GetCANTxFifo();
  1358  000E6A  EC3B  F00C         	call	_GetCANTxFifo	;wreg free
  1359  000E6E  EE21  F0B7         	lfsr	2,main@TempCANTxMsg
  1360  000E72  0E0E               	movlw	14
  1361  000E74                     u2801:
  1362  000E74  CFEE FFDE          	movff	postinc0,postinc2
  1363  000E78  2EE8               	decfsz	wreg,f,c
  1364  000E7A  D7FC               	goto	u2801
  1365                           
  1366                           ;main.c: 346: ECANSendMessage(TempCANTxMsg.id,TempCANTxMsg.data_TX,TempCANTxMsg.dataLen,
      +                          TempCANTxMsg.flags);
  1367  000E7C  C1B7  F079         	movff	main@TempCANTxMsg,ECANSendMessage@id
  1368  000E80  C1B8  F07A         	movff	main@TempCANTxMsg+1,ECANSendMessage@id+1
  1369  000E84  C1B9  F07B         	movff	main@TempCANTxMsg+2,ECANSendMessage@id+2
  1370  000E88  C1BA  F07C         	movff	main@TempCANTxMsg+3,ECANSendMessage@id+3
  1371  000E8C  0101               	movlb	1	; () banked
  1372  000E8E  0E01               	movlw	high (main@TempCANTxMsg+4)
  1373  000E90  0100               	movlb	0	; () banked
  1374  000E92  0100               	movlb	0	; () banked
  1375  000E94  6F7E               	movwf	(ECANSendMessage@data+1)& (0+255),b
  1376  000E96  0101               	movlb	1	; () banked
  1377  000E98  0EBB               	movlw	low (main@TempCANTxMsg+4)
  1378  000E9A  0100               	movlb	0	; () banked
  1379  000E9C  0100               	movlb	0	; () banked
  1380  000E9E  6F7D               	movwf	ECANSendMessage@data& (0+255),b
  1381  000EA0  C1C3  F07F         	movff	main@TempCANTxMsg+12,ECANSendMessage@dataLen
  1382  000EA4  C1C4  F080         	movff	main@TempCANTxMsg+13,ECANSendMessage@msgFlags
  1383  000EA8  EC48  F008         	call	_ECANSendMessage	;wreg free
  1384                           
  1385                           ;main.c: 347: LATDbits.LATD1=0;
  1386  000EAC  928C               	bcf	3980,1,c	;volatile
  1387  000EAE  D531               	goto	l3532
  1388  000EB0                     __end_of_main:
  1389                           	opt stack 0
  1390                           postinc0	equ	0xFEE
  1391                           wreg	equ	0xFE8
  1392                           postinc1	equ	0xFE6
  1393                           postinc2	equ	0xFDE
  1394                           status	equ	0xFD8
  1395                           
  1396                           	psect	cinit
  1397  002224                     __pcinit:
  1398                           	opt stack 0
  1399  002224                     start_initialization:
  1400                           	opt stack 0
  1401  002224                     __initialization:
  1402                           	opt stack 0
  1403                           
  1404                           ; Clear objects allocated to BANK2 (144 bytes)
  1405  002224  EE02  F000         	lfsr	0,__pbssBANK2
  1406  002228  0E90               	movlw	144
  1407  00222A                     clear_0:
  1408  00222A  6AEE               	clrf	postinc0,c
  1409  00222C  06E8               	decf	wreg,f,c
  1410  00222E  E1FD               	bnz	clear_0
  1411                           
  1412                           ; Clear objects allocated to BANK1 (144 bytes)
  1413  002230  EE01  F000         	lfsr	0,__pbssBANK1
  1414  002234  0E90               	movlw	144
  1415  002236                     clear_1:
  1416  002236  6AEE               	clrf	postinc0,c
  1417  002238  06E8               	decf	wreg,f,c
  1418  00223A  E1FD               	bnz	clear_1
  1419                           
  1420                           ; Clear objects allocated to BANK0 (28 bytes)
  1421  00223C  EE00  F0A8         	lfsr	0,__pbssBANK0
  1422  002240  0E1C               	movlw	28
  1423  002242                     clear_2:
  1424  002242  6AEE               	clrf	postinc0,c
  1425  002244  06E8               	decf	wreg,f,c
  1426  002246  E1FD               	bnz	clear_2
  1427                           
  1428                           ; Clear objects allocated to COMRAM (4 bytes)
  1429  002248  6A3E               	clrf	(__pbssCOMRAM+3)& (0+255),c
  1430  00224A  6A3D               	clrf	(__pbssCOMRAM+2)& (0+255),c
  1431  00224C  6A3C               	clrf	(__pbssCOMRAM+1)& (0+255),c
  1432  00224E  6A3B               	clrf	__pbssCOMRAM& (0+255),c
  1433  002250                     end_of_initialization:
  1434                           	opt stack 0
  1435  002250                     __end_of__initialization:
  1436                           	opt stack 0
  1437  002250  0100               	movlb	0
  1438  002252  EFF9  F003         	goto	_main	;jump to C main() function
  1439                           postinc0	equ	0xFEE
  1440                           wreg	equ	0xFE8
  1441                           postinc1	equ	0xFE6
  1442                           postinc2	equ	0xFDE
  1443                           status	equ	0xFD8
  1444                           
  1445                           	psect	bssCOMRAM
  1446  00003B                     __pbssCOMRAM:
  1447                           	opt stack 0
  1448  00003B                     _TickCounter:
  1449                           	opt stack 0
  1450  00003B                     	ds	3
  1451  00003E                     __ECANRxFilterHitInfo:
  1452                           	opt stack 0
  1453  00003E                     	ds	1
  1454                           postinc0	equ	0xFEE
  1455                           wreg	equ	0xFE8
  1456                           postinc1	equ	0xFE6
  1457                           postinc2	equ	0xFDE
  1458                           status	equ	0xFD8
  1459                           
  1460                           	psect	bssBANK0
  1461  0000A8                     __pbssBANK0:
  1462                           	opt stack 0
  1463  0000A8                     _USART1RxFifo:
  1464                           	opt stack 0
  1465  0000A8                     	ds	14
  1466  0000B6                     _USART2RxFifo:
  1467                           	opt stack 0
  1468  0000B6                     	ds	14
  1469                           postinc0	equ	0xFEE
  1470                           wreg	equ	0xFE8
  1471                           postinc1	equ	0xFE6
  1472                           postinc2	equ	0xFDE
  1473                           status	equ	0xFD8
  1474                           
  1475                           	psect	bssBANK1
  1476  000100                     __pbssBANK1:
  1477                           	opt stack 0
  1478  000100                     _CANTxFifo:
  1479                           	opt stack 0
  1480  000100                     	ds	144
  1481                           postinc0	equ	0xFEE
  1482                           wreg	equ	0xFE8
  1483                           postinc1	equ	0xFE6
  1484                           postinc2	equ	0xFDE
  1485                           status	equ	0xFD8
  1486                           
  1487                           	psect	bssBANK2
  1488  000200                     __pbssBANK2:
  1489                           	opt stack 0
  1490  000200                     _CANRxFifo:
  1491                           	opt stack 0
  1492  000200                     	ds	144
  1493                           postinc0	equ	0xFEE
  1494                           wreg	equ	0xFE8
  1495                           postinc1	equ	0xFE6
  1496                           postinc2	equ	0xFDE
  1497                           status	equ	0xFD8
  1498                           
  1499                           	psect	cstackBANK1
  1500  000190                     __pcstackBANK1:
  1501                           	opt stack 0
  1502  000190                     main@IMUAutotestResult:
  1503                           	opt stack 0
  1504                           
  1505                           ; 1 bytes @ 0x0
  1506  000190                     	ds	1
  1507  000191                     main@TempVar:
  1508                           	opt stack 0
  1509                           
  1510                           ; 1 bytes @ 0x1
  1511  000191                     	ds	1
  1512  000192                     main@i:
  1513                           	opt stack 0
  1514                           
  1515                           ; 1 bytes @ 0x2
  1516  000192                     	ds	1
  1517  000193                     main@i_888:
  1518                           	opt stack 0
  1519                           
  1520                           ; 1 bytes @ 0x3
  1521  000193                     	ds	1
  1522  000194                     main@TempCANRxMsg:
  1523                           	opt stack 0
  1524                           
  1525                           ; 14 bytes @ 0x4
  1526  000194                     	ds	14
  1527  0001A2                     main@CurrentIMUData:
  1528                           	opt stack 0
  1529                           
  1530                           ; 21 bytes @ 0x12
  1531  0001A2                     	ds	21
  1532  0001B7                     main@TempCANTxMsg:
  1533                           	opt stack 0
  1534                           
  1535                           ; 14 bytes @ 0x27
  1536  0001B7                     	ds	14
  1537                           postinc0	equ	0xFEE
  1538                           wreg	equ	0xFE8
  1539                           postinc1	equ	0xFE6
  1540                           postinc2	equ	0xFDE
  1541                           status	equ	0xFD8
  1542                           
  1543                           	psect	cstackBANK0
  1544  000060                     __pcstackBANK0:
  1545                           	opt stack 0
  1546  000060                     high_isr@CANRxNewMessage:
  1547                           	opt stack 0
  1548                           
  1549                           ; 14 bytes @ 0x0
  1550  000060                     	ds	14
  1551  00006E                     ??_ECANFiltersInit:
  1552  00006E                     ??_CANTxFifoInit:
  1553  00006E                     ??_CANRxFifoInit:
  1554  00006E                     ??_USARTFifoInit:
  1555  00006E                     ??_GetUSART2RxFifo:
  1556  00006E                     ??_GetUSART1RxFifo:
  1557  00006E                     ?_GetCANRxFifo:
  1558                           	opt stack 0
  1559  00006E                     ?_GetCANTxFifo:
  1560                           	opt stack 0
  1561  00006E                     USART1Write@data:
  1562                           	opt stack 0
  1563  00006E                     SPIWrite@TempVar:
  1564                           	opt stack 0
  1565  00006E                     SPIRead@DummyData:
  1566                           	opt stack 0
  1567  00006E                     ECANSetOperationMode@mode:
  1568                           	opt stack 0
  1569  00006E                     __CANIDToRegs@ptr:
  1570                           	opt stack 0
  1571  00006E                     PutCANTxFifo@PutMessage:
  1572                           	opt stack 0
  1573                           
  1574                           ; 14 bytes @ 0xE
  1575  00006E                     	ds	1
  1576  00006F                     SPIWrite@data:
  1577                           	opt stack 0
  1578  00006F                     SPIRead@TempVar:
  1579                           	opt stack 0
  1580  00006F                     GetUSART1RxFifo@CharToRead:
  1581                           	opt stack 0
  1582  00006F                     GetUSART2RxFifo@CharToRead:
  1583                           	opt stack 0
  1584                           
  1585                           ; 1 bytes @ 0xF
  1586  00006F                     	ds	1
  1587  000070                     IMURead@Device:
  1588                           	opt stack 0
  1589  000070                     IMUWrite@data:
  1590                           	opt stack 0
  1591  000070                     ECANFiltersInit@mask:
  1592                           	opt stack 0
  1593  000070                     __CANIDToRegs@val:
  1594                           	opt stack 0
  1595                           
  1596                           ; 4 bytes @ 0x10
  1597  000070                     	ds	1
  1598  000071                     ??_IMURead:
  1599  000071                     IMUWrite@Device:
  1600                           	opt stack 0
  1601                           
  1602                           ; 1 bytes @ 0x11
  1603  000071                     	ds	1
  1604  000072                     ??_IMUWrite:
  1605  000072                     IMURead@adress:
  1606                           	opt stack 0
  1607                           
  1608                           ; 1 bytes @ 0x12
  1609  000072                     	ds	1
  1610  000073                     IMURead@TempData:
  1611                           	opt stack 0
  1612  000073                     IMUWrite@Result:
  1613                           	opt stack 0
  1614                           
  1615                           ; 1 bytes @ 0x13
  1616  000073                     	ds	1
  1617  000074                     __CANIDToRegs@type:
  1618                           	opt stack 0
  1619  000074                     IMURead@Result:
  1620                           	opt stack 0
  1621  000074                     IMUWrite@adress:
  1622                           	opt stack 0
  1623                           
  1624                           ; 1 bytes @ 0x14
  1625  000074                     	ds	1
  1626  000075                     ??_IMUAutotest:
  1627  000075                     ??__CANIDToRegs:
  1628  000075                     ?_IMUUpdateData:
  1629                           	opt stack 0
  1630  000075                     IMUWrite@TempData:
  1631                           	opt stack 0
  1632                           
  1633                           ; 1 bytes @ 0x15
  1634  000075                     	ds	1
  1635  000076                     ??_IMUInitRegisters:
  1636  000076                     IMUAutotest@TempVar:
  1637                           	opt stack 0
  1638                           
  1639                           ; 1 bytes @ 0x16
  1640  000076                     	ds	1
  1641  000077                     IMUAutotest@Result:
  1642                           	opt stack 0
  1643  000077                     __CANIDToRegs@Value:
  1644                           	opt stack 0
  1645                           
  1646                           ; 2 bytes @ 0x17
  1647  000077                     	ds	2
  1648  000079                     ECANSendMessage@id:
  1649                           	opt stack 0
  1650                           
  1651                           ; 4 bytes @ 0x19
  1652  000079                     	ds	3
  1653  00007C                     ??_PutCANTxFifo:
  1654  00007C                     ??_GetCANRxFifo:
  1655  00007C                     ??_GetCANTxFifo:
  1656                           
  1657                           ; 0 bytes @ 0x1C
  1658  00007C                     	ds	1
  1659  00007D                     ECANSendMessage@data:
  1660                           	opt stack 0
  1661                           
  1662                           ; 2 bytes @ 0x1D
  1663  00007D                     	ds	1
  1664  00007E                     GetCANTxFifo@LocalCANTXMsg:
  1665                           	opt stack 0
  1666  00007E                     GetCANRxFifo@LocalCANRXMsg:
  1667                           	opt stack 0
  1668                           
  1669                           ; 14 bytes @ 0x1E
  1670  00007E                     	ds	1
  1671  00007F                     ECANSendMessage@dataLen:
  1672                           	opt stack 0
  1673                           
  1674                           ; 1 bytes @ 0x1F
  1675  00007F                     	ds	1
  1676  000080                     ECANSendMessage@msgFlags:
  1677                           	opt stack 0
  1678                           
  1679                           ; 1 bytes @ 0x20
  1680  000080                     	ds	1
  1681  000081                     ??_ECANSendMessage:
  1682                           
  1683                           ; 0 bytes @ 0x21
  1684  000081                     	ds	1
  1685  000082                     ECANSendMessage@pb:
  1686                           	opt stack 0
  1687                           
  1688                           ; 18 bytes @ 0x22
  1689  000082                     	ds	8
  1690  00008A                     ??_IMUUpdateData:
  1691                           
  1692                           ; 0 bytes @ 0x2A
  1693  00008A                     	ds	2
  1694  00008C                     IMUUpdateData@Temp_Var1:
  1695                           	opt stack 0
  1696                           
  1697                           ; 2 bytes @ 0x2C
  1698  00008C                     	ds	2
  1699  00008E                     IMUUpdateData@Temp_Var2:
  1700                           	opt stack 0
  1701                           
  1702                           ; 2 bytes @ 0x2E
  1703  00008E                     	ds	2
  1704  000090                     IMUUpdateData@temp_data:
  1705                           	opt stack 0
  1706                           
  1707                           ; 21 bytes @ 0x30
  1708  000090                     	ds	4
  1709  000094                     ECANSendMessage@j:
  1710                           	opt stack 0
  1711                           
  1712                           ; 1 bytes @ 0x34
  1713  000094                     	ds	1
  1714  000095                     ECANSendMessage@tempPtr:
  1715                           	opt stack 0
  1716                           
  1717                           ; 2 bytes @ 0x35
  1718  000095                     	ds	2
  1719  000097                     ECANSendMessage@temp:
  1720                           	opt stack 0
  1721                           
  1722                           ; 1 bytes @ 0x37
  1723  000097                     	ds	1
  1724  000098                     ECANSendMessage@i:
  1725                           	opt stack 0
  1726                           
  1727                           ; 1 bytes @ 0x38
  1728  000098                     	ds	1
  1729  000099                     ECANSendMessage@ptr:
  1730                           	opt stack 0
  1731                           
  1732                           ; 2 bytes @ 0x39
  1733  000099                     	ds	12
  1734  0000A5                     ??_main:
  1735                           
  1736                           ; 0 bytes @ 0x45
  1737  0000A5                     	ds	3
  1738                           postinc0	equ	0xFEE
  1739                           wreg	equ	0xFE8
  1740                           postinc1	equ	0xFE6
  1741                           postinc2	equ	0xFDE
  1742                           status	equ	0xFD8
  1743                           
  1744                           	psect	cstackCOMRAM
  1745  000001                     __pcstackCOMRAM:
  1746                           	opt stack 0
  1747  000001                     ??_PutUSART1RxFifo:
  1748  000001                     ??_PutUSART2RxFifo:
  1749  000001                     
  1750                           ; 1 bytes @ 0x0
  1751  000001                     	ds	1
  1752  000002                     PutUSART1RxFifo@ByteToWrite:
  1753                           	opt stack 0
  1754  000002                     PutUSART2RxFifo@ByteToWrite:
  1755                           	opt stack 0
  1756                           
  1757                           ; 1 bytes @ 0x1
  1758  000002                     	ds	1
  1759  000003                     ??_low_isr:
  1760                           
  1761                           ; 0 bytes @ 0x2
  1762  000003                     	ds	17
  1763  000014                     low_isr@temp:
  1764                           	opt stack 0
  1765                           
  1766                           ; 1 bytes @ 0x13
  1767  000014                     	ds	1
  1768  000015                     __RegsToCANID@ptr:
  1769                           	opt stack 0
  1770  000015                     PutCANRxFifo@PutMessage:
  1771                           	opt stack 0
  1772                           
  1773                           ; 14 bytes @ 0x14
  1774  000015                     	ds	2
  1775  000017                     __RegsToCANID@val:
  1776                           	opt stack 0
  1777                           
  1778                           ; 2 bytes @ 0x16
  1779  000017                     	ds	2
  1780  000019                     __RegsToCANID@type:
  1781                           	opt stack 0
  1782                           
  1783                           ; 1 bytes @ 0x18
  1784  000019                     	ds	1
  1785  00001A                     ??__RegsToCANID:
  1786                           
  1787                           ; 0 bytes @ 0x19
  1788  00001A                     	ds	2
  1789  00001C                     __RegsToCANID@Value:
  1790                           	opt stack 0
  1791                           
  1792                           ; 2 bytes @ 0x1B
  1793  00001C                     	ds	2
  1794  00001E                     ECANReceiveMessage@id:
  1795                           	opt stack 0
  1796                           
  1797                           ; 2 bytes @ 0x1D
  1798  00001E                     	ds	2
  1799  000020                     ECANReceiveMessage@data:
  1800                           	opt stack 0
  1801                           
  1802                           ; 2 bytes @ 0x1F
  1803  000020                     	ds	2
  1804  000022                     ECANReceiveMessage@dataLen:
  1805                           	opt stack 0
  1806                           
  1807                           ; 2 bytes @ 0x21
  1808  000022                     	ds	1
  1809  000023                     ??_PutCANRxFifo:
  1810                           
  1811                           ; 0 bytes @ 0x22
  1812  000023                     	ds	1
  1813  000024                     ECANReceiveMessage@msgFlags:
  1814                           	opt stack 0
  1815                           
  1816                           ; 2 bytes @ 0x23
  1817  000024                     	ds	2
  1818  000026                     ??_ECANReceiveMessage:
  1819                           
  1820                           ; 0 bytes @ 0x25
  1821  000026                     	ds	1
  1822  000027                     ECANReceiveMessage@savedPtr:
  1823                           	opt stack 0
  1824                           
  1825                           ; 2 bytes @ 0x26
  1826  000027                     	ds	2
  1827  000029                     ECANReceiveMessage@i:
  1828                           	opt stack 0
  1829                           
  1830                           ; 1 bytes @ 0x28
  1831  000029                     	ds	1
  1832  00002A                     ECANReceiveMessage@ptr:
  1833                           	opt stack 0
  1834                           
  1835                           ; 2 bytes @ 0x29
  1836  00002A                     	ds	2
  1837  00002C                     ECANReceiveMessage@temp:
  1838                           	opt stack 0
  1839                           
  1840                           ; 1 bytes @ 0x2B
  1841  00002C                     	ds	1
  1842  00002D                     ??_high_isr:
  1843                           
  1844                           ; 0 bytes @ 0x2C
  1845  00002D                     	ds	14
  1846                           postinc0	equ	0xFEE
  1847                           wreg	equ	0xFE8
  1848                           postinc1	equ	0xFE6
  1849                           postinc2	equ	0xFDE
  1850                           status	equ	0xFD8
  1851                           
  1852 ;; *************** function _USARTFifoInit *****************
  1853 ;; Defined at:
  1854 ;;		line 277 in file "system.c"
  1855 ;; Parameters:    Size  Location     Type
  1856 ;;		None
  1857 ;; Auto vars:     Size  Location     Type
  1858 ;;		None
  1859 ;; Return value:  Size  Location     Type
  1860 ;;		None               void
  1861 ;; Registers used:
  1862 ;;		status,2
  1863 ;; Tracked objects:
  1864 ;;		On entry : 0/0
  1865 ;;		On exit  : 0/0
  1866 ;;		Unchanged: 0/0
  1867 ;; Data sizes:     COMRAM   BANK0   BANK1   BANK2   BANK3   BANK4   BANK5   BANK6   BANK7   BANK8   BANK9  BANK10  BANK1
      +1  BANK12  BANK13  BANK14
  1868 ;;      Params:         0       0       0       0       0       0       0       0       0       0       0       0       
      +0       0       0       0
  1869 ;;      Locals:         0       0       0       0       0       0       0       0       0       0       0       0       
      +0       0       0       0
  1870 ;;      Temps:          0       1       0       0       0       0       0       0       0       0       0       0       
      +0       0       0       0
  1871 ;;      Totals:         0       1       0       0       0       0       0       0       0       0       0       0       
      +0       0       0       0
  1872 ;;Total ram usage:        1 bytes
  1873 ;; Hardware stack levels used:    1
  1874 ;; Hardware stack levels required when called:    5
  1875 ;; This function calls:
  1876 ;;		Nothing
  1877 ;; This function is called by:
  1878 ;;		_main
  1879 ;; This function uses a non-reentrant model
  1880 ;;
  1881                           
  1882                           	psect	text1
  1883  001E1C                     __ptext1:
  1884                           	opt stack 0
  1885  001E1C                     _USARTFifoInit:
  1886                           	opt stack 24
  1887                           
  1888                           ;system.c: 279: USART1RxFifo.FifoEmpty=1;
  1889                           
  1890                           ;incstack = 0
  1891  001E1C  0100               	movlb	0	; () banked
  1892  001E1E  6F6E               	movwf	??_USARTFifoInit& (0+255),b
  1893  001E20  0E01               	movlw	1
  1894  001E22  0100               	movlb	0	; () banked
  1895  001E24  0100               	movlb	0	; () banked
  1896  001E26  6FB5               	movwf	(_USART1RxFifo+13)& (0+255),b
  1897  001E28  0100               	movlb	0	; () banked
  1898  001E2A  516E               	movf	??_USARTFifoInit& (0+255),w,b
  1899                           
  1900                           ;system.c: 280: USART1RxFifo.Fifofull=0;
  1901  001E2C  0100               	movlb	0	; () banked
  1902  001E2E  6F6E               	movwf	??_USARTFifoInit& (0+255),b
  1903  001E30  0E00               	movlw	0
  1904  001E32  0100               	movlb	0	; () banked
  1905  001E34  0100               	movlb	0	; () banked
  1906  001E36  6FB4               	movwf	(_USART1RxFifo+12)& (0+255),b
  1907  001E38  0100               	movlb	0	; () banked
  1908  001E3A  516E               	movf	??_USARTFifoInit& (0+255),w,b
  1909                           
  1910                           ;system.c: 281: USART1RxFifo.HighIndex=0;
  1911  001E3C  0100               	movlb	0	; () banked
  1912  001E3E  6F6E               	movwf	??_USARTFifoInit& (0+255),b
  1913  001E40  0E00               	movlw	0
  1914  001E42  0100               	movlb	0	; () banked
  1915  001E44  0100               	movlb	0	; () banked
  1916  001E46  6FB3               	movwf	(_USART1RxFifo+11)& (0+255),b
  1917  001E48  0100               	movlb	0	; () banked
  1918  001E4A  516E               	movf	??_USARTFifoInit& (0+255),w,b
  1919                           
  1920                           ;system.c: 282: USART1RxFifo.LowIndex=0;
  1921  001E4C  0100               	movlb	0	; () banked
  1922  001E4E  6F6E               	movwf	??_USARTFifoInit& (0+255),b
  1923  001E50  0E00               	movlw	0
  1924  001E52  0100               	movlb	0	; () banked
  1925  001E54  0100               	movlb	0	; () banked
  1926  001E56  6FB2               	movwf	(_USART1RxFifo+10)& (0+255),b
  1927  001E58  0100               	movlb	0	; () banked
  1928  001E5A  516E               	movf	??_USARTFifoInit& (0+255),w,b
  1929                           
  1930                           ;system.c: 284: USART2RxFifo.FifoEmpty=1;
  1931  001E5C  0100               	movlb	0	; () banked
  1932  001E5E  6F6E               	movwf	??_USARTFifoInit& (0+255),b
  1933  001E60  0E01               	movlw	1
  1934  001E62  0100               	movlb	0	; () banked
  1935  001E64  0100               	movlb	0	; () banked
  1936  001E66  6FC3               	movwf	(_USART2RxFifo+13)& (0+255),b
  1937  001E68  0100               	movlb	0	; () banked
  1938  001E6A  516E               	movf	??_USARTFifoInit& (0+255),w,b
  1939                           
  1940                           ;system.c: 285: USART2RxFifo.Fifofull=0;
  1941  001E6C  0100               	movlb	0	; () banked
  1942  001E6E  6F6E               	movwf	??_USARTFifoInit& (0+255),b
  1943  001E70  0E00               	movlw	0
  1944  001E72  0100               	movlb	0	; () banked
  1945  001E74  0100               	movlb	0	; () banked
  1946  001E76  6FC2               	movwf	(_USART2RxFifo+12)& (0+255),b
  1947  001E78  0100               	movlb	0	; () banked
  1948  001E7A  516E               	movf	??_USARTFifoInit& (0+255),w,b
  1949                           
  1950                           ;system.c: 286: USART2RxFifo.HighIndex=0;
  1951  001E7C  0100               	movlb	0	; () banked
  1952  001E7E  6F6E               	movwf	??_USARTFifoInit& (0+255),b
  1953  001E80  0E00               	movlw	0
  1954  001E82  0100               	movlb	0	; () banked
  1955  001E84  0100               	movlb	0	; () banked
  1956  001E86  6FC1               	movwf	(_USART2RxFifo+11)& (0+255),b
  1957  001E88  0100               	movlb	0	; () banked
  1958  001E8A  516E               	movf	??_USARTFifoInit& (0+255),w,b
  1959                           
  1960                           ;system.c: 287: USART2RxFifo.LowIndex=0;
  1961  001E8C  0100               	movlb	0	; () banked
  1962  001E8E  6F6E               	movwf	??_USARTFifoInit& (0+255),b
  1963  001E90  0E00               	movlw	0
  1964  001E92  0100               	movlb	0	; () banked
  1965  001E94  0100               	movlb	0	; () banked
  1966  001E96  6FC0               	movwf	(_USART2RxFifo+10)& (0+255),b
  1967  001E98  0100               	movlb	0	; () banked
  1968  001E9A  516E               	movf	??_USARTFifoInit& (0+255),w,b
  1969                           
  1970                           ; BSR set to: 0
  1971  001E9C  0012               	return	
  1972  001E9E                     __end_of_USARTFifoInit:
  1973                           	opt stack 0
  1974                           postinc0	equ	0xFEE
  1975                           wreg	equ	0xFE8
  1976                           postinc1	equ	0xFE6
  1977                           postinc2	equ	0xFDE
  1978                           status	equ	0xFD8
  1979                           
  1980 ;; *************** function _USART1Write *****************
  1981 ;; Defined at:
  1982 ;;		line 223 in file "system.c"
  1983 ;; Parameters:    Size  Location     Type
  1984 ;;  data            1    wreg     unsigned char 
  1985 ;; Auto vars:     Size  Location     Type
  1986 ;;  data            1   14[BANK0 ] unsigned char 
  1987 ;; Return value:  Size  Location     Type
  1988 ;;		None               void
  1989 ;; Registers used:
  1990 ;;		wreg
  1991 ;; Tracked objects:
  1992 ;;		On entry : 0/0
  1993 ;;		On exit  : 0/0
  1994 ;;		Unchanged: 0/0
  1995 ;; Data sizes:     COMRAM   BANK0   BANK1   BANK2   BANK3   BANK4   BANK5   BANK6   BANK7   BANK8   BANK9  BANK10  BANK1
      +1  BANK12  BANK13  BANK14
  1996 ;;      Params:         0       0       0       0       0       0       0       0       0       0       0       0       
      +0       0       0       0
  1997 ;;      Locals:         0       1       0       0       0       0       0       0       0       0       0       0       
      +0       0       0       0
  1998 ;;      Temps:          0       0       0       0       0       0       0       0       0       0       0       0       
      +0       0       0       0
  1999 ;;      Totals:         0       1       0       0       0       0       0       0       0       0       0       0       
      +0       0       0       0
  2000 ;;Total ram usage:        1 bytes
  2001 ;; Hardware stack levels used:    1
  2002 ;; Hardware stack levels required when called:    5
  2003 ;; This function calls:
  2004 ;;		Nothing
  2005 ;; This function is called by:
  2006 ;;		_main
  2007 ;; This function uses a non-reentrant model
  2008 ;;
  2009                           
  2010                           	psect	text2
  2011  002332                     __ptext2:
  2012                           	opt stack 0
  2013  002332                     _USART1Write:
  2014                           	opt stack 24
  2015                           
  2016                           ; BSR set to: 0
  2017                           ;incstack = 0
  2018                           ;USART1Write@data stored from wreg
  2019  002332  CFE8 F06E          	movff	wreg,USART1Write@data
  2020  002336                     l289:
  2021  002336  A2AC               	btfss	4012,1,c	;volatile
  2022  002338  D7FE               	goto	l289
  2023                           
  2024                           ;system.c: 226: TXREG1=data;
  2025  00233A  C06E  FFAD         	movff	USART1Write@data,4013	;volatile
  2026  00233E  0012               	return	
  2027  002340                     __end_of_USART1Write:
  2028                           	opt stack 0
  2029                           postinc0	equ	0xFEE
  2030                           wreg	equ	0xFE8
  2031                           postinc1	equ	0xFE6
  2032                           postinc2	equ	0xFDE
  2033                           status	equ	0xFD8
  2034                           
  2035 ;; *************** function _PutCANTxFifo *****************
  2036 ;; Defined at:
  2037 ;;		line 43 in file "Can_HL.c"
  2038 ;; Parameters:    Size  Location     Type
  2039 ;;  PutMessage     14   14[BANK0 ] struct CANTxMsg
  2040 ;; Auto vars:     Size  Location     Type
  2041 ;;		None
  2042 ;; Return value:  Size  Location     Type
  2043 ;;		None               void
  2044 ;; Registers used:
  2045 ;;		wreg, fsr1l, fsr1h, fsr2l, fsr2h, status,2, status,0, prodl, prodh
  2046 ;; Tracked objects:
  2047 ;;		On entry : 0/0
  2048 ;;		On exit  : 0/0
  2049 ;;		Unchanged: 0/0
  2050 ;; Data sizes:     COMRAM   BANK0   BANK1   BANK2   BANK3   BANK4   BANK5   BANK6   BANK7   BANK8   BANK9  BANK10  BANK1
      +1  BANK12  BANK13  BANK14
  2051 ;;      Params:         0      14       0       0       0       0       0       0       0       0       0       0       
      +0       0       0       0
  2052 ;;      Locals:         0       0       0       0       0       0       0       0       0       0       0       0       
      +0       0       0       0
  2053 ;;      Temps:          0       2       0       0       0       0       0       0       0       0       0       0       
      +0       0       0       0
  2054 ;;      Totals:         0      16       0       0       0       0       0       0       0       0       0       0       
      +0       0       0       0
  2055 ;;Total ram usage:       16 bytes
  2056 ;; Hardware stack levels used:    1
  2057 ;; Hardware stack levels required when called:    5
  2058 ;; This function calls:
  2059 ;;		Nothing
  2060 ;; This function is called by:
  2061 ;;		_main
  2062 ;; This function uses a non-reentrant model
  2063 ;;
  2064                           
  2065                           	psect	text3
  2066  001C74                     __ptext3:
  2067                           	opt stack 0
  2068  001C74                     _PutCANTxFifo:
  2069                           	opt stack 24
  2070                           
  2071                           ;Can_HL.c: 46: if(!CANTxFifo.Fifofull)
  2072                           
  2073                           ;incstack = 0
  2074  001C74  0101               	movlb	1	; () banked
  2075  001C76  0101               	movlb	1	; () banked
  2076  001C78  678E               	tstfsz	(_CANTxFifo+142)& (0+255),b
  2077  001C7A  0012               	return	
  2078                           
  2079                           ; BSR set to: 1
  2080                           ;Can_HL.c: 47: {
  2081                           ;Can_HL.c: 48: INTCONbits.GIE=0;
  2082  001C7C  9EF2               	bcf	intcon,7,c	;volatile
  2083                           
  2084                           ; BSR set to: 1
  2085                           ;Can_HL.c: 49: CANTxFifo.CANMsg[CANTxFifo.HighIndex]=PutMessage;
  2086  001C7E  EE20  F06E         	lfsr	2,PutCANTxFifo@PutMessage
  2087  001C82  0101               	movlb	1	; () banked
  2088  001C84  0101               	movlb	1	; () banked
  2089  001C86  518D               	movf	(_CANTxFifo+141)& (0+255),w,b
  2090  001C88  0D0E               	mullw	14
  2091  001C8A  0E00               	movlw	low _CANTxFifo
  2092  001C8C  0100               	movlb	0	; () banked
  2093  001C8E  6F7C               	movwf	??_PutCANTxFifo& (0+255),b
  2094  001C90  0E01               	movlw	high _CANTxFifo
  2095  001C92  6F7D               	movwf	(??_PutCANTxFifo+1)& (0+255),b
  2096  001C94  50F3               	movf	prodl,w,c
  2097  001C96  0100               	movlb	0	; () banked
  2098  001C98  277C               	addwf	??_PutCANTxFifo& (0+255),f,b
  2099  001C9A  50F4               	movf	prodh,w,c
  2100  001C9C  0100               	movlb	0	; () banked
  2101  001C9E  237D               	addwfc	(??_PutCANTxFifo+1)& (0+255),f,b
  2102  001CA0  C07C  FFE1         	movff	??_PutCANTxFifo,fsr1l
  2103  001CA4  C07D  FFE2         	movff	??_PutCANTxFifo+1,fsr1h
  2104  001CA8  0E0E               	movlw	14
  2105  001CAA                     u2911:
  2106  001CAA  CFDE FFE6          	movff	postinc2,postinc1
  2107  001CAE  2EE8               	decfsz	wreg,f,c
  2108  001CB0  D7FC               	goto	u2911
  2109                           
  2110                           ; BSR set to: 0
  2111                           ;Can_HL.c: 50: CANTxFifo.FifoEmpty=0;
  2112  001CB2  0100               	movlb	0	; () banked
  2113  001CB4  6F7C               	movwf	??_PutCANTxFifo& (0+255),b
  2114  001CB6  0E00               	movlw	0
  2115  001CB8  0101               	movlb	1	; () banked
  2116  001CBA  0101               	movlb	1	; () banked
  2117  001CBC  6F8F               	movwf	(_CANTxFifo+143)& (0+255),b
  2118  001CBE  0100               	movlb	0	; () banked
  2119  001CC0  517C               	movf	??_PutCANTxFifo& (0+255),w,b
  2120                           
  2121                           ; BSR set to: 0
  2122                           ;Can_HL.c: 51: CANTxFifo.HighIndex++;
  2123  001CC2  0101               	movlb	1	; () banked
  2124  001CC4  0101               	movlb	1	; () banked
  2125  001CC6  2B8D               	incf	(_CANTxFifo+141)& (0+255),f,b
  2126                           
  2127                           ; BSR set to: 1
  2128                           ;Can_HL.c: 53: if(CANTxFifo.HighIndex==(10))
  2129  001CC8  0101               	movlb	1	; () banked
  2130  001CCA  0101               	movlb	1	; () banked
  2131  001CCC  518D               	movf	(_CANTxFifo+141)& (0+255),w,b
  2132  001CCE  0A0A               	xorlw	10
  2133  001CD0  A4D8               	btfss	status,2,c
  2134  001CD2  D008               	goto	l4046
  2135                           
  2136                           ; BSR set to: 1
  2137                           ;Can_HL.c: 54: CANTxFifo.HighIndex=0;
  2138  001CD4  0100               	movlb	0	; () banked
  2139  001CD6  6F7C               	movwf	??_PutCANTxFifo& (0+255),b
  2140  001CD8  0E00               	movlw	0
  2141  001CDA  0101               	movlb	1	; () banked
  2142  001CDC  0101               	movlb	1	; () banked
  2143  001CDE  6F8D               	movwf	(_CANTxFifo+141)& (0+255),b
  2144  001CE0  0100               	movlb	0	; () banked
  2145  001CE2  517C               	movf	??_PutCANTxFifo& (0+255),w,b
  2146  001CE4                     l4046:
  2147                           
  2148                           ;Can_HL.c: 56: if(CANTxFifo.HighIndex==CANTxFifo.LowIndex)
  2149  001CE4  0101               	movlb	1	; () banked
  2150  001CE6  0101               	movlb	1	; () banked
  2151  001CE8  518C               	movf	(_CANTxFifo+140)& (0+255),w,b
  2152  001CEA  0101               	movlb	1	; () banked
  2153  001CEC  EE21  F08D         	lfsr	2,_CANTxFifo+141
  2154  001CF0  62DF               	cpfseq	indf2,c
  2155  001CF2  D008               	goto	l4050
  2156                           
  2157                           ; BSR set to: 1
  2158                           ;Can_HL.c: 57: CANTxFifo.Fifofull=1;
  2159  001CF4  0100               	movlb	0	; () banked
  2160  001CF6  6F7C               	movwf	??_PutCANTxFifo& (0+255),b
  2161  001CF8  0E01               	movlw	1
  2162  001CFA  0101               	movlb	1	; () banked
  2163  001CFC  0101               	movlb	1	; () banked
  2164  001CFE  6F8E               	movwf	(_CANTxFifo+142)& (0+255),b
  2165  001D00  0100               	movlb	0	; () banked
  2166  001D02  517C               	movf	??_PutCANTxFifo& (0+255),w,b
  2167  001D04                     l4050:
  2168                           
  2169                           ;Can_HL.c: 59: INTCONbits.GIE=1;
  2170  001D04  8EF2               	bsf	intcon,7,c	;volatile
  2171  001D06  0012               	return	
  2172  001D08                     __end_of_PutCANTxFifo:
  2173                           	opt stack 0
  2174                           prodh	equ	0xFF4
  2175                           prodl	equ	0xFF3
  2176                           intcon	equ	0xFF2
  2177                           postinc0	equ	0xFEE
  2178                           wreg	equ	0xFE8
  2179                           postinc1	equ	0xFE6
  2180                           fsr1h	equ	0xFE2
  2181                           fsr1l	equ	0xFE1
  2182                           indf2	equ	0xFDF
  2183                           postinc2	equ	0xFDE
  2184                           status	equ	0xFD8
  2185                           
  2186 ;; *************** function _IMUUpdateData *****************
  2187 ;; Defined at:
  2188 ;;		line 104 in file "IMUModule.c"
  2189 ;; Parameters:    Size  Location     Type
  2190 ;;		None
  2191 ;; Auto vars:     Size  Location     Type
  2192 ;;  temp_data      21   48[BANK0 ] struct IMUData
  2193 ;;  Temp_Var2       2   46[BANK0 ] unsigned int 
  2194 ;;  Temp_Var1       2   44[BANK0 ] unsigned int 
  2195 ;; Return value:  Size  Location     Type
  2196 ;;                  21   21[BANK0 ] struct IMUData
  2197 ;; Registers used:
  2198 ;;		wreg, fsr0l, fsr0h, fsr2l, fsr2h, status,2, status,0, cstack
  2199 ;; Tracked objects:
  2200 ;;		On entry : 0/0
  2201 ;;		On exit  : 0/0
  2202 ;;		Unchanged: 0/0
  2203 ;; Data sizes:     COMRAM   BANK0   BANK1   BANK2   BANK3   BANK4   BANK5   BANK6   BANK7   BANK8   BANK9  BANK10  BANK1
      +1  BANK12  BANK13  BANK14
  2204 ;;      Params:         0      21       0       0       0       0       0       0       0       0       0       0       
      +0       0       0       0
  2205 ;;      Locals:         0      25       0       0       0       0       0       0       0       0       0       0       
      +0       0       0       0
  2206 ;;      Temps:          0       2       0       0       0       0       0       0       0       0       0       0       
      +0       0       0       0
  2207 ;;      Totals:         0      48       0       0       0       0       0       0       0       0       0       0       
      +0       0       0       0
  2208 ;;Total ram usage:       48 bytes
  2209 ;; Hardware stack levels used:    1
  2210 ;; Hardware stack levels required when called:    7
  2211 ;; This function calls:
  2212 ;;		_IMURead
  2213 ;; This function is called by:
  2214 ;;		_main
  2215 ;; This function uses a non-reentrant model
  2216 ;;
  2217                           
  2218                           	psect	text4
  2219  0000EA                     __ptext4:
  2220                           	opt stack 0
  2221  0000EA                     _IMUUpdateData:
  2222                           	opt stack 22
  2223                           
  2224                           ;IMUModule.c: 106: struct IMUData temp_data;
  2225                           ;IMUModule.c: 107: unsigned int Temp_Var1=0;
  2226                           
  2227                           ;incstack = 0
  2228  0000EA  0E00               	movlw	0
  2229  0000EC  0100               	movlb	0	; () banked
  2230  0000EE  0100               	movlb	0	; () banked
  2231  0000F0  6F8D               	movwf	(IMUUpdateData@Temp_Var1+1)& (0+255),b
  2232  0000F2  0E00               	movlw	0
  2233  0000F4  0100               	movlb	0	; () banked
  2234  0000F6  6F8C               	movwf	IMUUpdateData@Temp_Var1& (0+255),b
  2235                           
  2236                           ;IMUModule.c: 108: unsigned int Temp_Var2=0;
  2237  0000F8  0E00               	movlw	0
  2238  0000FA  0100               	movlb	0	; () banked
  2239  0000FC  0100               	movlb	0	; () banked
  2240  0000FE  6F8F               	movwf	(IMUUpdateData@Temp_Var2+1)& (0+255),b
  2241  000100  0E00               	movlw	0
  2242  000102  0100               	movlb	0	; () banked
  2243  000104  6F8E               	movwf	IMUUpdateData@Temp_Var2& (0+255),b
  2244                           
  2245                           ; BSR set to: 0
  2246                           ;IMUModule.c: 112: Temp_Var1= (IMURead(0x02,0) & 0xF0)>>4;
  2247  000106  0100               	movlb	0	; () banked
  2248  000108  6F8A               	movwf	??_IMUUpdateData& (0+255),b
  2249  00010A  0E00               	movlw	0
  2250  00010C  0100               	movlb	0	; () banked
  2251  00010E  0100               	movlb	0	; () banked
  2252  000110  6F70               	movwf	IMURead@Device& (0+255),b
  2253  000112  0100               	movlb	0	; () banked
  2254  000114  518A               	movf	??_IMUUpdateData& (0+255),w,b
  2255  000116  0E02               	movlw	2
  2256  000118  EC8E  F00F         	call	_IMURead
  2257  00011C  0100               	movlb	0	; () banked
  2258  00011E  6F8B               	movwf	(??_IMUUpdateData+1)& (0+255),b
  2259  000120  0100               	movlb	0	; () banked
  2260  000122  3B8B               	swapf	(??_IMUUpdateData+1)& (0+255),f,b
  2261  000124  0E0F               	movlw	15
  2262  000126  178B               	andwf	(??_IMUUpdateData+1)& (0+255),f,b
  2263  000128  0E0F               	movlw	15
  2264  00012A  0100               	movlb	0	; () banked
  2265  00012C  178B               	andwf	(??_IMUUpdateData+1)& (0+255),f,b
  2266  00012E  0100               	movlb	0	; () banked
  2267  000130  518B               	movf	(??_IMUUpdateData+1)& (0+255),w,b
  2268  000132  0100               	movlb	0	; () banked
  2269  000134  0100               	movlb	0	; () banked
  2270  000136  6F8C               	movwf	IMUUpdateData@Temp_Var1& (0+255),b
  2271  000138  0100               	movlb	0	; () banked
  2272  00013A  6B8D               	clrf	(IMUUpdateData@Temp_Var1+1)& (0+255),b
  2273                           
  2274                           ; BSR set to: 0
  2275                           ;IMUModule.c: 113: Temp_Var2 = IMURead(0x03,0);
  2276  00013C  0100               	movlb	0	; () banked
  2277  00013E  6F8A               	movwf	??_IMUUpdateData& (0+255),b
  2278  000140  0E00               	movlw	0
  2279  000142  0100               	movlb	0	; () banked
  2280  000144  0100               	movlb	0	; () banked
  2281  000146  6F70               	movwf	IMURead@Device& (0+255),b
  2282  000148  0100               	movlb	0	; () banked
  2283  00014A  518A               	movf	??_IMUUpdateData& (0+255),w,b
  2284  00014C  0E03               	movlw	3
  2285  00014E  EC8E  F00F         	call	_IMURead
  2286  000152  0100               	movlb	0	; () banked
  2287  000154  6F8B               	movwf	(??_IMUUpdateData+1)& (0+255),b
  2288  000156  0100               	movlb	0	; () banked
  2289  000158  518B               	movf	(??_IMUUpdateData+1)& (0+255),w,b
  2290  00015A  0100               	movlb	0	; () banked
  2291  00015C  0100               	movlb	0	; () banked
  2292  00015E  6F8E               	movwf	IMUUpdateData@Temp_Var2& (0+255),b
  2293  000160  0100               	movlb	0	; () banked
  2294  000162  6B8F               	clrf	(IMUUpdateData@Temp_Var2+1)& (0+255),b
  2295                           
  2296                           ; BSR set to: 0
  2297                           ;IMUModule.c: 114: temp_data.XAccelerationData = (Temp_Var2<<4)|Temp_Var1;
  2298  000164  0100               	movlb	0	; () banked
  2299  000166  C08E  F08A         	movff	IMUUpdateData@Temp_Var2,??_IMUUpdateData
  2300  00016A  0100               	movlb	0	; () banked
  2301  00016C  C08F  F08B         	movff	IMUUpdateData@Temp_Var2+1,??_IMUUpdateData+1
  2302  000170  0100               	movlb	0	; () banked
  2303  000172  3B8A               	swapf	??_IMUUpdateData& (0+255),f,b
  2304  000174  3B8B               	swapf	(??_IMUUpdateData+1)& (0+255),f,b
  2305  000176  0EF0               	movlw	240
  2306  000178  178B               	andwf	(??_IMUUpdateData+1)& (0+255),f,b
  2307  00017A  518A               	movf	??_IMUUpdateData& (0+255),w,b
  2308  00017C  0B0F               	andlw	15
  2309  00017E  138B               	iorwf	(??_IMUUpdateData+1)& (0+255),f,b
  2310  000180  0EF0               	movlw	240
  2311  000182  178A               	andwf	??_IMUUpdateData& (0+255),f,b
  2312  000184  0100               	movlb	0	; () banked
  2313  000186  0100               	movlb	0	; () banked
  2314  000188  518C               	movf	IMUUpdateData@Temp_Var1& (0+255),w,b
  2315  00018A  0100               	movlb	0	; () banked
  2316  00018C  118A               	iorwf	??_IMUUpdateData& (0+255),w,b
  2317  00018E  0100               	movlb	0	; () banked
  2318  000190  0100               	movlb	0	; () banked
  2319  000192  6F90               	movwf	IMUUpdateData@temp_data& (0+255),b
  2320  000194  0100               	movlb	0	; () banked
  2321  000196  0100               	movlb	0	; () banked
  2322  000198  518D               	movf	(IMUUpdateData@Temp_Var1+1)& (0+255),w,b
  2323  00019A  0100               	movlb	0	; () banked
  2324  00019C  118B               	iorwf	(??_IMUUpdateData+1)& (0+255),w,b
  2325  00019E  0100               	movlb	0	; () banked
  2326  0001A0  6F91               	movwf	(IMUUpdateData@temp_data+1)& (0+255),b
  2327                           
  2328                           ; BSR set to: 0
  2329                           ;IMUModule.c: 116: Temp_Var1=0;
  2330  0001A2  0E00               	movlw	0
  2331  0001A4  0100               	movlb	0	; () banked
  2332  0001A6  0100               	movlb	0	; () banked
  2333  0001A8  6F8D               	movwf	(IMUUpdateData@Temp_Var1+1)& (0+255),b
  2334  0001AA  0E00               	movlw	0
  2335  0001AC  0100               	movlb	0	; () banked
  2336  0001AE  6F8C               	movwf	IMUUpdateData@Temp_Var1& (0+255),b
  2337                           
  2338                           ; BSR set to: 0
  2339                           ;IMUModule.c: 117: Temp_Var2=0;
  2340  0001B0  0E00               	movlw	0
  2341  0001B2  0100               	movlb	0	; () banked
  2342  0001B4  0100               	movlb	0	; () banked
  2343  0001B6  6F8F               	movwf	(IMUUpdateData@Temp_Var2+1)& (0+255),b
  2344  0001B8  0E00               	movlw	0
  2345  0001BA  0100               	movlb	0	; () banked
  2346  0001BC  6F8E               	movwf	IMUUpdateData@Temp_Var2& (0+255),b
  2347                           
  2348                           ; BSR set to: 0
  2349                           ;IMUModule.c: 118: Temp_Var1= (IMURead(0x04,0) & 0xF0)>>4;
  2350  0001BE  0100               	movlb	0	; () banked
  2351  0001C0  6F8A               	movwf	??_IMUUpdateData& (0+255),b
  2352  0001C2  0E00               	movlw	0
  2353  0001C4  0100               	movlb	0	; () banked
  2354  0001C6  0100               	movlb	0	; () banked
  2355  0001C8  6F70               	movwf	IMURead@Device& (0+255),b
  2356  0001CA  0100               	movlb	0	; () banked
  2357  0001CC  518A               	movf	??_IMUUpdateData& (0+255),w,b
  2358  0001CE  0E04               	movlw	4
  2359  0001D0  EC8E  F00F         	call	_IMURead
  2360  0001D4  0100               	movlb	0	; () banked
  2361  0001D6  6F8B               	movwf	(??_IMUUpdateData+1)& (0+255),b
  2362  0001D8  0100               	movlb	0	; () banked
  2363  0001DA  3B8B               	swapf	(??_IMUUpdateData+1)& (0+255),f,b
  2364  0001DC  0E0F               	movlw	15
  2365  0001DE  178B               	andwf	(??_IMUUpdateData+1)& (0+255),f,b
  2366  0001E0  0E0F               	movlw	15
  2367  0001E2  0100               	movlb	0	; () banked
  2368  0001E4  178B               	andwf	(??_IMUUpdateData+1)& (0+255),f,b
  2369  0001E6  0100               	movlb	0	; () banked
  2370  0001E8  518B               	movf	(??_IMUUpdateData+1)& (0+255),w,b
  2371  0001EA  0100               	movlb	0	; () banked
  2372  0001EC  0100               	movlb	0	; () banked
  2373  0001EE  6F8C               	movwf	IMUUpdateData@Temp_Var1& (0+255),b
  2374  0001F0  0100               	movlb	0	; () banked
  2375  0001F2  6B8D               	clrf	(IMUUpdateData@Temp_Var1+1)& (0+255),b
  2376                           
  2377                           ; BSR set to: 0
  2378                           ;IMUModule.c: 119: Temp_Var2 = IMURead(0x05,0);
  2379  0001F4  0100               	movlb	0	; () banked
  2380  0001F6  6F8A               	movwf	??_IMUUpdateData& (0+255),b
  2381  0001F8  0E00               	movlw	0
  2382  0001FA  0100               	movlb	0	; () banked
  2383  0001FC  0100               	movlb	0	; () banked
  2384  0001FE  6F70               	movwf	IMURead@Device& (0+255),b
  2385  000200  0100               	movlb	0	; () banked
  2386  000202  518A               	movf	??_IMUUpdateData& (0+255),w,b
  2387  000204  0E05               	movlw	5
  2388  000206  EC8E  F00F         	call	_IMURead
  2389  00020A  0100               	movlb	0	; () banked
  2390  00020C  6F8B               	movwf	(??_IMUUpdateData+1)& (0+255),b
  2391  00020E  0100               	movlb	0	; () banked
  2392  000210  518B               	movf	(??_IMUUpdateData+1)& (0+255),w,b
  2393  000212  0100               	movlb	0	; () banked
  2394  000214  0100               	movlb	0	; () banked
  2395  000216  6F8E               	movwf	IMUUpdateData@Temp_Var2& (0+255),b
  2396  000218  0100               	movlb	0	; () banked
  2397  00021A  6B8F               	clrf	(IMUUpdateData@Temp_Var2+1)& (0+255),b
  2398                           
  2399                           ; BSR set to: 0
  2400                           ;IMUModule.c: 120: temp_data.YAccelerationData = (Temp_Var2<<4)|Temp_Var1;
  2401  00021C  0100               	movlb	0	; () banked
  2402  00021E  C08E  F08A         	movff	IMUUpdateData@Temp_Var2,??_IMUUpdateData
  2403  000222  0100               	movlb	0	; () banked
  2404  000224  C08F  F08B         	movff	IMUUpdateData@Temp_Var2+1,??_IMUUpdateData+1
  2405  000228  0100               	movlb	0	; () banked
  2406  00022A  3B8A               	swapf	??_IMUUpdateData& (0+255),f,b
  2407  00022C  3B8B               	swapf	(??_IMUUpdateData+1)& (0+255),f,b
  2408  00022E  0EF0               	movlw	240
  2409  000230  178B               	andwf	(??_IMUUpdateData+1)& (0+255),f,b
  2410  000232  518A               	movf	??_IMUUpdateData& (0+255),w,b
  2411  000234  0B0F               	andlw	15
  2412  000236  138B               	iorwf	(??_IMUUpdateData+1)& (0+255),f,b
  2413  000238  0EF0               	movlw	240
  2414  00023A  178A               	andwf	??_IMUUpdateData& (0+255),f,b
  2415  00023C  0100               	movlb	0	; () banked
  2416  00023E  0100               	movlb	0	; () banked
  2417  000240  518C               	movf	IMUUpdateData@Temp_Var1& (0+255),w,b
  2418  000242  0100               	movlb	0	; () banked
  2419  000244  118A               	iorwf	??_IMUUpdateData& (0+255),w,b
  2420  000246  0100               	movlb	0	; () banked
  2421  000248  0100               	movlb	0	; () banked
  2422  00024A  6F92               	movwf	(IMUUpdateData@temp_data+2)& (0+255),b
  2423  00024C  0100               	movlb	0	; () banked
  2424  00024E  0100               	movlb	0	; () banked
  2425  000250  518D               	movf	(IMUUpdateData@Temp_Var1+1)& (0+255),w,b
  2426  000252  0100               	movlb	0	; () banked
  2427  000254  118B               	iorwf	(??_IMUUpdateData+1)& (0+255),w,b
  2428  000256  0100               	movlb	0	; () banked
  2429  000258  6F93               	movwf	(IMUUpdateData@temp_data+3)& (0+255),b
  2430                           
  2431                           ;IMUModule.c: 122: Temp_Var1=0;
  2432  00025A  0E00               	movlw	0
  2433  00025C  0100               	movlb	0	; () banked
  2434  00025E  0100               	movlb	0	; () banked
  2435  000260  6F8D               	movwf	(IMUUpdateData@Temp_Var1+1)& (0+255),b
  2436  000262  0E00               	movlw	0
  2437  000264  0100               	movlb	0	; () banked
  2438  000266  6F8C               	movwf	IMUUpdateData@Temp_Var1& (0+255),b
  2439                           
  2440                           ;IMUModule.c: 123: Temp_Var2=0;
  2441  000268  0E00               	movlw	0
  2442  00026A  0100               	movlb	0	; () banked
  2443  00026C  0100               	movlb	0	; () banked
  2444  00026E  6F8F               	movwf	(IMUUpdateData@Temp_Var2+1)& (0+255),b
  2445  000270  0E00               	movlw	0
  2446  000272  0100               	movlb	0	; () banked
  2447  000274  6F8E               	movwf	IMUUpdateData@Temp_Var2& (0+255),b
  2448                           
  2449                           ; BSR set to: 0
  2450                           ;IMUModule.c: 124: Temp_Var1= (IMURead(0x06,0) & 0xF0)>>4;
  2451  000276  0100               	movlb	0	; () banked
  2452  000278  6F8A               	movwf	??_IMUUpdateData& (0+255),b
  2453  00027A  0E00               	movlw	0
  2454  00027C  0100               	movlb	0	; () banked
  2455  00027E  0100               	movlb	0	; () banked
  2456  000280  6F70               	movwf	IMURead@Device& (0+255),b
  2457  000282  0100               	movlb	0	; () banked
  2458  000284  518A               	movf	??_IMUUpdateData& (0+255),w,b
  2459  000286  0E06               	movlw	6
  2460  000288  EC8E  F00F         	call	_IMURead
  2461  00028C  0100               	movlb	0	; () banked
  2462  00028E  6F8B               	movwf	(??_IMUUpdateData+1)& (0+255),b
  2463  000290  0100               	movlb	0	; () banked
  2464  000292  3B8B               	swapf	(??_IMUUpdateData+1)& (0+255),f,b
  2465  000294  0E0F               	movlw	15
  2466  000296  178B               	andwf	(??_IMUUpdateData+1)& (0+255),f,b
  2467  000298  0E0F               	movlw	15
  2468  00029A  0100               	movlb	0	; () banked
  2469  00029C  178B               	andwf	(??_IMUUpdateData+1)& (0+255),f,b
  2470  00029E  0100               	movlb	0	; () banked
  2471  0002A0  518B               	movf	(??_IMUUpdateData+1)& (0+255),w,b
  2472  0002A2  0100               	movlb	0	; () banked
  2473  0002A4  0100               	movlb	0	; () banked
  2474  0002A6  6F8C               	movwf	IMUUpdateData@Temp_Var1& (0+255),b
  2475  0002A8  0100               	movlb	0	; () banked
  2476  0002AA  6B8D               	clrf	(IMUUpdateData@Temp_Var1+1)& (0+255),b
  2477                           
  2478                           ; BSR set to: 0
  2479                           ;IMUModule.c: 125: Temp_Var2 = IMURead(0x07,0);
  2480  0002AC  0100               	movlb	0	; () banked
  2481  0002AE  6F8A               	movwf	??_IMUUpdateData& (0+255),b
  2482  0002B0  0E00               	movlw	0
  2483  0002B2  0100               	movlb	0	; () banked
  2484  0002B4  0100               	movlb	0	; () banked
  2485  0002B6  6F70               	movwf	IMURead@Device& (0+255),b
  2486  0002B8  0100               	movlb	0	; () banked
  2487  0002BA  518A               	movf	??_IMUUpdateData& (0+255),w,b
  2488  0002BC  0E07               	movlw	7
  2489  0002BE  EC8E  F00F         	call	_IMURead
  2490  0002C2  0100               	movlb	0	; () banked
  2491  0002C4  6F8B               	movwf	(??_IMUUpdateData+1)& (0+255),b
  2492  0002C6  0100               	movlb	0	; () banked
  2493  0002C8  518B               	movf	(??_IMUUpdateData+1)& (0+255),w,b
  2494  0002CA  0100               	movlb	0	; () banked
  2495  0002CC  0100               	movlb	0	; () banked
  2496  0002CE  6F8E               	movwf	IMUUpdateData@Temp_Var2& (0+255),b
  2497  0002D0  0100               	movlb	0	; () banked
  2498  0002D2  6B8F               	clrf	(IMUUpdateData@Temp_Var2+1)& (0+255),b
  2499                           
  2500                           ; BSR set to: 0
  2501                           ;IMUModule.c: 126: temp_data.ZAccelerationData = (Temp_Var2<<4)|Temp_Var1;
  2502  0002D4  0100               	movlb	0	; () banked
  2503  0002D6  C08E  F08A         	movff	IMUUpdateData@Temp_Var2,??_IMUUpdateData
  2504  0002DA  0100               	movlb	0	; () banked
  2505  0002DC  C08F  F08B         	movff	IMUUpdateData@Temp_Var2+1,??_IMUUpdateData+1
  2506  0002E0  0100               	movlb	0	; () banked
  2507  0002E2  3B8A               	swapf	??_IMUUpdateData& (0+255),f,b
  2508  0002E4  3B8B               	swapf	(??_IMUUpdateData+1)& (0+255),f,b
  2509  0002E6  0EF0               	movlw	240
  2510  0002E8  178B               	andwf	(??_IMUUpdateData+1)& (0+255),f,b
  2511  0002EA  518A               	movf	??_IMUUpdateData& (0+255),w,b
  2512  0002EC  0B0F               	andlw	15
  2513  0002EE  138B               	iorwf	(??_IMUUpdateData+1)& (0+255),f,b
  2514  0002F0  0EF0               	movlw	240
  2515  0002F2  178A               	andwf	??_IMUUpdateData& (0+255),f,b
  2516  0002F4  0100               	movlb	0	; () banked
  2517  0002F6  0100               	movlb	0	; () banked
  2518  0002F8  518C               	movf	IMUUpdateData@Temp_Var1& (0+255),w,b
  2519  0002FA  0100               	movlb	0	; () banked
  2520  0002FC  118A               	iorwf	??_IMUUpdateData& (0+255),w,b
  2521  0002FE  0100               	movlb	0	; () banked
  2522  000300  0100               	movlb	0	; () banked
  2523  000302  6F94               	movwf	(IMUUpdateData@temp_data+4)& (0+255),b
  2524  000304  0100               	movlb	0	; () banked
  2525  000306  0100               	movlb	0	; () banked
  2526  000308  518D               	movf	(IMUUpdateData@Temp_Var1+1)& (0+255),w,b
  2527  00030A  0100               	movlb	0	; () banked
  2528  00030C  118B               	iorwf	(??_IMUUpdateData+1)& (0+255),w,b
  2529  00030E  0100               	movlb	0	; () banked
  2530  000310  6F95               	movwf	(IMUUpdateData@temp_data+5)& (0+255),b
  2531                           
  2532                           ; BSR set to: 0
  2533                           ;IMUModule.c: 130: Temp_Var1=0;
  2534  000312  0E00               	movlw	0
  2535  000314  0100               	movlb	0	; () banked
  2536  000316  0100               	movlb	0	; () banked
  2537  000318  6F8D               	movwf	(IMUUpdateData@Temp_Var1+1)& (0+255),b
  2538  00031A  0E00               	movlw	0
  2539  00031C  0100               	movlb	0	; () banked
  2540  00031E  6F8C               	movwf	IMUUpdateData@Temp_Var1& (0+255),b
  2541                           
  2542                           ; BSR set to: 0
  2543                           ;IMUModule.c: 131: Temp_Var2=0;
  2544  000320  0E00               	movlw	0
  2545  000322  0100               	movlb	0	; () banked
  2546  000324  0100               	movlb	0	; () banked
  2547  000326  6F8F               	movwf	(IMUUpdateData@Temp_Var2+1)& (0+255),b
  2548  000328  0E00               	movlw	0
  2549  00032A  0100               	movlb	0	; () banked
  2550  00032C  6F8E               	movwf	IMUUpdateData@Temp_Var2& (0+255),b
  2551                           
  2552                           ; BSR set to: 0
  2553                           ;IMUModule.c: 132: Temp_Var1= IMURead(0x02,1);
  2554  00032E  0100               	movlb	0	; () banked
  2555  000330  6F8A               	movwf	??_IMUUpdateData& (0+255),b
  2556  000332  0E01               	movlw	1
  2557  000334  0100               	movlb	0	; () banked
  2558  000336  0100               	movlb	0	; () banked
  2559  000338  6F70               	movwf	IMURead@Device& (0+255),b
  2560  00033A  0100               	movlb	0	; () banked
  2561  00033C  518A               	movf	??_IMUUpdateData& (0+255),w,b
  2562  00033E  0E02               	movlw	2
  2563  000340  EC8E  F00F         	call	_IMURead
  2564  000344  0100               	movlb	0	; () banked
  2565  000346  6F8B               	movwf	(??_IMUUpdateData+1)& (0+255),b
  2566  000348  0100               	movlb	0	; () banked
  2567  00034A  518B               	movf	(??_IMUUpdateData+1)& (0+255),w,b
  2568  00034C  0100               	movlb	0	; () banked
  2569  00034E  0100               	movlb	0	; () banked
  2570  000350  6F8C               	movwf	IMUUpdateData@Temp_Var1& (0+255),b
  2571  000352  0100               	movlb	0	; () banked
  2572  000354  6B8D               	clrf	(IMUUpdateData@Temp_Var1+1)& (0+255),b
  2573                           
  2574                           ; BSR set to: 0
  2575                           ;IMUModule.c: 133: Temp_Var2 = IMURead(0x03,1);
  2576  000356  0100               	movlb	0	; () banked
  2577  000358  6F8A               	movwf	??_IMUUpdateData& (0+255),b
  2578  00035A  0E01               	movlw	1
  2579  00035C  0100               	movlb	0	; () banked
  2580  00035E  0100               	movlb	0	; () banked
  2581  000360  6F70               	movwf	IMURead@Device& (0+255),b
  2582  000362  0100               	movlb	0	; () banked
  2583  000364  518A               	movf	??_IMUUpdateData& (0+255),w,b
  2584  000366  0E03               	movlw	3
  2585  000368  EC8E  F00F         	call	_IMURead
  2586  00036C  0100               	movlb	0	; () banked
  2587  00036E  6F8B               	movwf	(??_IMUUpdateData+1)& (0+255),b
  2588  000370  0100               	movlb	0	; () banked
  2589  000372  518B               	movf	(??_IMUUpdateData+1)& (0+255),w,b
  2590  000374  0100               	movlb	0	; () banked
  2591  000376  0100               	movlb	0	; () banked
  2592  000378  6F8E               	movwf	IMUUpdateData@Temp_Var2& (0+255),b
  2593  00037A  0100               	movlb	0	; () banked
  2594  00037C  6B8F               	clrf	(IMUUpdateData@Temp_Var2+1)& (0+255),b
  2595                           
  2596                           ; BSR set to: 0
  2597                           ;IMUModule.c: 134: temp_data.XGyroscopeData = (Temp_Var2<<8)|Temp_Var1;
  2598  00037E  0100               	movlb	0	; () banked
  2599  000380  0100               	movlb	0	; () banked
  2600  000382  518E               	movf	IMUUpdateData@Temp_Var2& (0+255),w,b
  2601  000384  0100               	movlb	0	; () banked
  2602  000386  6F8B               	movwf	(??_IMUUpdateData+1)& (0+255),b
  2603  000388  6B8A               	clrf	??_IMUUpdateData& (0+255),b
  2604  00038A  0100               	movlb	0	; () banked
  2605  00038C  0100               	movlb	0	; () banked
  2606  00038E  518C               	movf	IMUUpdateData@Temp_Var1& (0+255),w,b
  2607  000390  0100               	movlb	0	; () banked
  2608  000392  118A               	iorwf	??_IMUUpdateData& (0+255),w,b
  2609  000394  0100               	movlb	0	; () banked
  2610  000396  0100               	movlb	0	; () banked
  2611  000398  6F96               	movwf	(IMUUpdateData@temp_data+6)& (0+255),b
  2612  00039A  0100               	movlb	0	; () banked
  2613  00039C  0100               	movlb	0	; () banked
  2614  00039E  518D               	movf	(IMUUpdateData@Temp_Var1+1)& (0+255),w,b
  2615  0003A0  0100               	movlb	0	; () banked
  2616  0003A2  118B               	iorwf	(??_IMUUpdateData+1)& (0+255),w,b
  2617  0003A4  0100               	movlb	0	; () banked
  2618  0003A6  6F97               	movwf	(IMUUpdateData@temp_data+7)& (0+255),b
  2619                           
  2620                           ;IMUModule.c: 136: Temp_Var1=0;
  2621  0003A8  0E00               	movlw	0
  2622  0003AA  0100               	movlb	0	; () banked
  2623  0003AC  0100               	movlb	0	; () banked
  2624  0003AE  6F8D               	movwf	(IMUUpdateData@Temp_Var1+1)& (0+255),b
  2625  0003B0  0E00               	movlw	0
  2626  0003B2  0100               	movlb	0	; () banked
  2627  0003B4  6F8C               	movwf	IMUUpdateData@Temp_Var1& (0+255),b
  2628                           
  2629                           ;IMUModule.c: 137: Temp_Var2=0;
  2630  0003B6  0E00               	movlw	0
  2631  0003B8  0100               	movlb	0	; () banked
  2632  0003BA  0100               	movlb	0	; () banked
  2633  0003BC  6F8F               	movwf	(IMUUpdateData@Temp_Var2+1)& (0+255),b
  2634  0003BE  0E00               	movlw	0
  2635  0003C0  0100               	movlb	0	; () banked
  2636  0003C2  6F8E               	movwf	IMUUpdateData@Temp_Var2& (0+255),b
  2637                           
  2638                           ; BSR set to: 0
  2639                           ;IMUModule.c: 138: Temp_Var1= IMURead(0x04,1);
  2640  0003C4  0100               	movlb	0	; () banked
  2641  0003C6  6F8A               	movwf	??_IMUUpdateData& (0+255),b
  2642  0003C8  0E01               	movlw	1
  2643  0003CA  0100               	movlb	0	; () banked
  2644  0003CC  0100               	movlb	0	; () banked
  2645  0003CE  6F70               	movwf	IMURead@Device& (0+255),b
  2646  0003D0  0100               	movlb	0	; () banked
  2647  0003D2  518A               	movf	??_IMUUpdateData& (0+255),w,b
  2648  0003D4  0E04               	movlw	4
  2649  0003D6  EC8E  F00F         	call	_IMURead
  2650  0003DA  0100               	movlb	0	; () banked
  2651  0003DC  6F8B               	movwf	(??_IMUUpdateData+1)& (0+255),b
  2652  0003DE  0100               	movlb	0	; () banked
  2653  0003E0  518B               	movf	(??_IMUUpdateData+1)& (0+255),w,b
  2654  0003E2  0100               	movlb	0	; () banked
  2655  0003E4  0100               	movlb	0	; () banked
  2656  0003E6  6F8C               	movwf	IMUUpdateData@Temp_Var1& (0+255),b
  2657  0003E8  0100               	movlb	0	; () banked
  2658  0003EA  6B8D               	clrf	(IMUUpdateData@Temp_Var1+1)& (0+255),b
  2659                           
  2660                           ; BSR set to: 0
  2661                           ;IMUModule.c: 139: Temp_Var2 = IMURead(0x05,1);
  2662  0003EC  0100               	movlb	0	; () banked
  2663  0003EE  6F8A               	movwf	??_IMUUpdateData& (0+255),b
  2664  0003F0  0E01               	movlw	1
  2665  0003F2  0100               	movlb	0	; () banked
  2666  0003F4  0100               	movlb	0	; () banked
  2667  0003F6  6F70               	movwf	IMURead@Device& (0+255),b
  2668  0003F8  0100               	movlb	0	; () banked
  2669  0003FA  518A               	movf	??_IMUUpdateData& (0+255),w,b
  2670  0003FC  0E05               	movlw	5
  2671  0003FE  EC8E  F00F         	call	_IMURead
  2672  000402  0100               	movlb	0	; () banked
  2673  000404  6F8B               	movwf	(??_IMUUpdateData+1)& (0+255),b
  2674  000406  0100               	movlb	0	; () banked
  2675  000408  518B               	movf	(??_IMUUpdateData+1)& (0+255),w,b
  2676  00040A  0100               	movlb	0	; () banked
  2677  00040C  0100               	movlb	0	; () banked
  2678  00040E  6F8E               	movwf	IMUUpdateData@Temp_Var2& (0+255),b
  2679  000410  0100               	movlb	0	; () banked
  2680  000412  6B8F               	clrf	(IMUUpdateData@Temp_Var2+1)& (0+255),b
  2681                           
  2682                           ; BSR set to: 0
  2683                           ;IMUModule.c: 140: temp_data.YGyroscopeData = (Temp_Var2<<8)|Temp_Var1;
  2684  000414  0100               	movlb	0	; () banked
  2685  000416  0100               	movlb	0	; () banked
  2686  000418  518E               	movf	IMUUpdateData@Temp_Var2& (0+255),w,b
  2687  00041A  0100               	movlb	0	; () banked
  2688  00041C  6F8B               	movwf	(??_IMUUpdateData+1)& (0+255),b
  2689  00041E  6B8A               	clrf	??_IMUUpdateData& (0+255),b
  2690  000420  0100               	movlb	0	; () banked
  2691  000422  0100               	movlb	0	; () banked
  2692  000424  518C               	movf	IMUUpdateData@Temp_Var1& (0+255),w,b
  2693  000426  0100               	movlb	0	; () banked
  2694  000428  118A               	iorwf	??_IMUUpdateData& (0+255),w,b
  2695  00042A  0100               	movlb	0	; () banked
  2696  00042C  0100               	movlb	0	; () banked
  2697  00042E  6F98               	movwf	(IMUUpdateData@temp_data+8)& (0+255),b
  2698  000430  0100               	movlb	0	; () banked
  2699  000432  0100               	movlb	0	; () banked
  2700  000434  518D               	movf	(IMUUpdateData@Temp_Var1+1)& (0+255),w,b
  2701  000436  0100               	movlb	0	; () banked
  2702  000438  118B               	iorwf	(??_IMUUpdateData+1)& (0+255),w,b
  2703  00043A  0100               	movlb	0	; () banked
  2704  00043C  6F99               	movwf	(IMUUpdateData@temp_data+9)& (0+255),b
  2705                           
  2706                           ; BSR set to: 0
  2707                           ;IMUModule.c: 142: Temp_Var1=0;
  2708  00043E  0E00               	movlw	0
  2709  000440  0100               	movlb	0	; () banked
  2710  000442  0100               	movlb	0	; () banked
  2711  000444  6F8D               	movwf	(IMUUpdateData@Temp_Var1+1)& (0+255),b
  2712  000446  0E00               	movlw	0
  2713  000448  0100               	movlb	0	; () banked
  2714  00044A  6F8C               	movwf	IMUUpdateData@Temp_Var1& (0+255),b
  2715                           
  2716                           ; BSR set to: 0
  2717                           ;IMUModule.c: 143: Temp_Var2=0;
  2718  00044C  0E00               	movlw	0
  2719  00044E  0100               	movlb	0	; () banked
  2720  000450  0100               	movlb	0	; () banked
  2721  000452  6F8F               	movwf	(IMUUpdateData@Temp_Var2+1)& (0+255),b
  2722  000454  0E00               	movlw	0
  2723  000456  0100               	movlb	0	; () banked
  2724  000458  6F8E               	movwf	IMUUpdateData@Temp_Var2& (0+255),b
  2725                           
  2726                           ; BSR set to: 0
  2727                           ;IMUModule.c: 144: Temp_Var1= IMURead(0x06,1);
  2728  00045A  0100               	movlb	0	; () banked
  2729  00045C  6F8A               	movwf	??_IMUUpdateData& (0+255),b
  2730  00045E  0E01               	movlw	1
  2731  000460  0100               	movlb	0	; () banked
  2732  000462  0100               	movlb	0	; () banked
  2733  000464  6F70               	movwf	IMURead@Device& (0+255),b
  2734  000466  0100               	movlb	0	; () banked
  2735  000468  518A               	movf	??_IMUUpdateData& (0+255),w,b
  2736  00046A  0E06               	movlw	6
  2737  00046C  EC8E  F00F         	call	_IMURead
  2738  000470  0100               	movlb	0	; () banked
  2739  000472  6F8B               	movwf	(??_IMUUpdateData+1)& (0+255),b
  2740  000474  0100               	movlb	0	; () banked
  2741  000476  518B               	movf	(??_IMUUpdateData+1)& (0+255),w,b
  2742  000478  0100               	movlb	0	; () banked
  2743  00047A  0100               	movlb	0	; () banked
  2744  00047C  6F8C               	movwf	IMUUpdateData@Temp_Var1& (0+255),b
  2745  00047E  0100               	movlb	0	; () banked
  2746  000480  6B8D               	clrf	(IMUUpdateData@Temp_Var1+1)& (0+255),b
  2747                           
  2748                           ; BSR set to: 0
  2749                           ;IMUModule.c: 145: Temp_Var2 = IMURead(0x07,1);
  2750  000482  0100               	movlb	0	; () banked
  2751  000484  6F8A               	movwf	??_IMUUpdateData& (0+255),b
  2752  000486  0E01               	movlw	1
  2753  000488  0100               	movlb	0	; () banked
  2754  00048A  0100               	movlb	0	; () banked
  2755  00048C  6F70               	movwf	IMURead@Device& (0+255),b
  2756  00048E  0100               	movlb	0	; () banked
  2757  000490  518A               	movf	??_IMUUpdateData& (0+255),w,b
  2758  000492  0E07               	movlw	7
  2759  000494  EC8E  F00F         	call	_IMURead
  2760  000498  0100               	movlb	0	; () banked
  2761  00049A  6F8B               	movwf	(??_IMUUpdateData+1)& (0+255),b
  2762  00049C  0100               	movlb	0	; () banked
  2763  00049E  518B               	movf	(??_IMUUpdateData+1)& (0+255),w,b
  2764  0004A0  0100               	movlb	0	; () banked
  2765  0004A2  0100               	movlb	0	; () banked
  2766  0004A4  6F8E               	movwf	IMUUpdateData@Temp_Var2& (0+255),b
  2767  0004A6  0100               	movlb	0	; () banked
  2768  0004A8  6B8F               	clrf	(IMUUpdateData@Temp_Var2+1)& (0+255),b
  2769                           
  2770                           ; BSR set to: 0
  2771                           ;IMUModule.c: 146: temp_data.ZGyroscopeData = (Temp_Var2<<8)|Temp_Var1;
  2772  0004AA  0100               	movlb	0	; () banked
  2773  0004AC  0100               	movlb	0	; () banked
  2774  0004AE  518E               	movf	IMUUpdateData@Temp_Var2& (0+255),w,b
  2775  0004B0  0100               	movlb	0	; () banked
  2776  0004B2  6F8B               	movwf	(??_IMUUpdateData+1)& (0+255),b
  2777  0004B4  6B8A               	clrf	??_IMUUpdateData& (0+255),b
  2778  0004B6  0100               	movlb	0	; () banked
  2779  0004B8  0100               	movlb	0	; () banked
  2780  0004BA  518C               	movf	IMUUpdateData@Temp_Var1& (0+255),w,b
  2781  0004BC  0100               	movlb	0	; () banked
  2782  0004BE  118A               	iorwf	??_IMUUpdateData& (0+255),w,b
  2783  0004C0  0100               	movlb	0	; () banked
  2784  0004C2  0100               	movlb	0	; () banked
  2785  0004C4  6F9A               	movwf	(IMUUpdateData@temp_data+10)& (0+255),b
  2786  0004C6  0100               	movlb	0	; () banked
  2787  0004C8  0100               	movlb	0	; () banked
  2788  0004CA  518D               	movf	(IMUUpdateData@Temp_Var1+1)& (0+255),w,b
  2789  0004CC  0100               	movlb	0	; () banked
  2790  0004CE  118B               	iorwf	(??_IMUUpdateData+1)& (0+255),w,b
  2791  0004D0  0100               	movlb	0	; () banked
  2792  0004D2  6F9B               	movwf	(IMUUpdateData@temp_data+11)& (0+255),b
  2793                           
  2794                           ;IMUModule.c: 150: Temp_Var1=0;
  2795  0004D4  0E00               	movlw	0
  2796  0004D6  0100               	movlb	0	; () banked
  2797  0004D8  0100               	movlb	0	; () banked
  2798  0004DA  6F8D               	movwf	(IMUUpdateData@Temp_Var1+1)& (0+255),b
  2799  0004DC  0E00               	movlw	0
  2800  0004DE  0100               	movlb	0	; () banked
  2801  0004E0  6F8C               	movwf	IMUUpdateData@Temp_Var1& (0+255),b
  2802                           
  2803                           ;IMUModule.c: 151: Temp_Var2=0;
  2804  0004E2  0E00               	movlw	0
  2805  0004E4  0100               	movlb	0	; () banked
  2806  0004E6  0100               	movlb	0	; () banked
  2807  0004E8  6F8F               	movwf	(IMUUpdateData@Temp_Var2+1)& (0+255),b
  2808  0004EA  0E00               	movlw	0
  2809  0004EC  0100               	movlb	0	; () banked
  2810  0004EE  6F8E               	movwf	IMUUpdateData@Temp_Var2& (0+255),b
  2811                           
  2812                           ; BSR set to: 0
  2813                           ;IMUModule.c: 152: Temp_Var1= (IMURead(0x42,2) & 0xF8)>>3;
  2814  0004F0  0100               	movlb	0	; () banked
  2815  0004F2  6F8A               	movwf	??_IMUUpdateData& (0+255),b
  2816  0004F4  0E02               	movlw	2
  2817  0004F6  0100               	movlb	0	; () banked
  2818  0004F8  0100               	movlb	0	; () banked
  2819  0004FA  6F70               	movwf	IMURead@Device& (0+255),b
  2820  0004FC  0100               	movlb	0	; () banked
  2821  0004FE  518A               	movf	??_IMUUpdateData& (0+255),w,b
  2822  000500  0E42               	movlw	66
  2823  000502  EC8E  F00F         	call	_IMURead
  2824  000506  0100               	movlb	0	; () banked
  2825  000508  6F8B               	movwf	(??_IMUUpdateData+1)& (0+255),b
  2826  00050A  0100               	movlb	0	; () banked
  2827  00050C  90D8               	bcf	status,0,c
  2828  00050E  338B               	rrcf	(??_IMUUpdateData+1)& (0+255),f,b
  2829  000510  0100               	movlb	0	; () banked
  2830  000512  90D8               	bcf	status,0,c
  2831  000514  338B               	rrcf	(??_IMUUpdateData+1)& (0+255),f,b
  2832  000516  0100               	movlb	0	; () banked
  2833  000518  90D8               	bcf	status,0,c
  2834  00051A  338B               	rrcf	(??_IMUUpdateData+1)& (0+255),f,b
  2835  00051C  0E1F               	movlw	31
  2836  00051E  0100               	movlb	0	; () banked
  2837  000520  178B               	andwf	(??_IMUUpdateData+1)& (0+255),f,b
  2838  000522  0100               	movlb	0	; () banked
  2839  000524  518B               	movf	(??_IMUUpdateData+1)& (0+255),w,b
  2840  000526  0100               	movlb	0	; () banked
  2841  000528  0100               	movlb	0	; () banked
  2842  00052A  6F8C               	movwf	IMUUpdateData@Temp_Var1& (0+255),b
  2843  00052C  0100               	movlb	0	; () banked
  2844  00052E  6B8D               	clrf	(IMUUpdateData@Temp_Var1+1)& (0+255),b
  2845                           
  2846                           ; BSR set to: 0
  2847                           ;IMUModule.c: 153: Temp_Var2 = IMURead(0x43,2);
  2848  000530  0100               	movlb	0	; () banked
  2849  000532  6F8A               	movwf	??_IMUUpdateData& (0+255),b
  2850  000534  0E02               	movlw	2
  2851  000536  0100               	movlb	0	; () banked
  2852  000538  0100               	movlb	0	; () banked
  2853  00053A  6F70               	movwf	IMURead@Device& (0+255),b
  2854  00053C  0100               	movlb	0	; () banked
  2855  00053E  518A               	movf	??_IMUUpdateData& (0+255),w,b
  2856  000540  0E43               	movlw	67
  2857  000542  EC8E  F00F         	call	_IMURead
  2858  000546  0100               	movlb	0	; () banked
  2859  000548  6F8B               	movwf	(??_IMUUpdateData+1)& (0+255),b
  2860  00054A  0100               	movlb	0	; () banked
  2861  00054C  518B               	movf	(??_IMUUpdateData+1)& (0+255),w,b
  2862  00054E  0100               	movlb	0	; () banked
  2863  000550  0100               	movlb	0	; () banked
  2864  000552  6F8E               	movwf	IMUUpdateData@Temp_Var2& (0+255),b
  2865  000554  0100               	movlb	0	; () banked
  2866  000556  6B8F               	clrf	(IMUUpdateData@Temp_Var2+1)& (0+255),b
  2867                           
  2868                           ; BSR set to: 0
  2869                           ;IMUModule.c: 154: temp_data.XMagnetData = (Temp_Var2<<5)|Temp_Var1;
  2870  000558  0100               	movlb	0	; () banked
  2871  00055A  C08E  F08A         	movff	IMUUpdateData@Temp_Var2,??_IMUUpdateData
  2872  00055E  0100               	movlb	0	; () banked
  2873  000560  C08F  F08B         	movff	IMUUpdateData@Temp_Var2+1,??_IMUUpdateData+1
  2874  000564  0E05               	movlw	5
  2875  000566                     u2855:
  2876  000566  90D8               	bcf	status,0,c
  2877  000568  0100               	movlb	0	; () banked
  2878  00056A  378A               	rlcf	??_IMUUpdateData& (0+255),f,b
  2879  00056C  378B               	rlcf	(??_IMUUpdateData+1)& (0+255),f,b
  2880  00056E  2EE8               	decfsz	wreg,f,c
  2881  000570  D7FA               	goto	u2855
  2882  000572  0100               	movlb	0	; () banked
  2883  000574  0100               	movlb	0	; () banked
  2884  000576  518C               	movf	IMUUpdateData@Temp_Var1& (0+255),w,b
  2885  000578  0100               	movlb	0	; () banked
  2886  00057A  118A               	iorwf	??_IMUUpdateData& (0+255),w,b
  2887  00057C  0100               	movlb	0	; () banked
  2888  00057E  0100               	movlb	0	; () banked
  2889  000580  6F9C               	movwf	(IMUUpdateData@temp_data+12)& (0+255),b
  2890  000582  0100               	movlb	0	; () banked
  2891  000584  0100               	movlb	0	; () banked
  2892  000586  518D               	movf	(IMUUpdateData@Temp_Var1+1)& (0+255),w,b
  2893  000588  0100               	movlb	0	; () banked
  2894  00058A  118B               	iorwf	(??_IMUUpdateData+1)& (0+255),w,b
  2895  00058C  0100               	movlb	0	; () banked
  2896  00058E  6F9D               	movwf	(IMUUpdateData@temp_data+13)& (0+255),b
  2897                           
  2898                           ; BSR set to: 0
  2899                           ;IMUModule.c: 156: Temp_Var1=0;
  2900  000590  0E00               	movlw	0
  2901  000592  0100               	movlb	0	; () banked
  2902  000594  0100               	movlb	0	; () banked
  2903  000596  6F8D               	movwf	(IMUUpdateData@Temp_Var1+1)& (0+255),b
  2904  000598  0E00               	movlw	0
  2905  00059A  0100               	movlb	0	; () banked
  2906  00059C  6F8C               	movwf	IMUUpdateData@Temp_Var1& (0+255),b
  2907                           
  2908                           ; BSR set to: 0
  2909                           ;IMUModule.c: 157: Temp_Var2=0;
  2910  00059E  0E00               	movlw	0
  2911  0005A0  0100               	movlb	0	; () banked
  2912  0005A2  0100               	movlb	0	; () banked
  2913  0005A4  6F8F               	movwf	(IMUUpdateData@Temp_Var2+1)& (0+255),b
  2914  0005A6  0E00               	movlw	0
  2915  0005A8  0100               	movlb	0	; () banked
  2916  0005AA  6F8E               	movwf	IMUUpdateData@Temp_Var2& (0+255),b
  2917                           
  2918                           ; BSR set to: 0
  2919                           ;IMUModule.c: 158: Temp_Var1= (IMURead(0x44,2) & 0xF8)>>3;
  2920  0005AC  0100               	movlb	0	; () banked
  2921  0005AE  6F8A               	movwf	??_IMUUpdateData& (0+255),b
  2922  0005B0  0E02               	movlw	2
  2923  0005B2  0100               	movlb	0	; () banked
  2924  0005B4  0100               	movlb	0	; () banked
  2925  0005B6  6F70               	movwf	IMURead@Device& (0+255),b
  2926  0005B8  0100               	movlb	0	; () banked
  2927  0005BA  518A               	movf	??_IMUUpdateData& (0+255),w,b
  2928  0005BC  0E44               	movlw	68
  2929  0005BE  EC8E  F00F         	call	_IMURead
  2930  0005C2  0100               	movlb	0	; () banked
  2931  0005C4  6F8B               	movwf	(??_IMUUpdateData+1)& (0+255),b
  2932  0005C6  0100               	movlb	0	; () banked
  2933  0005C8  90D8               	bcf	status,0,c
  2934  0005CA  338B               	rrcf	(??_IMUUpdateData+1)& (0+255),f,b
  2935  0005CC  0100               	movlb	0	; () banked
  2936  0005CE  90D8               	bcf	status,0,c
  2937  0005D0  338B               	rrcf	(??_IMUUpdateData+1)& (0+255),f,b
  2938  0005D2  0100               	movlb	0	; () banked
  2939  0005D4  90D8               	bcf	status,0,c
  2940  0005D6  338B               	rrcf	(??_IMUUpdateData+1)& (0+255),f,b
  2941  0005D8  0E1F               	movlw	31
  2942  0005DA  0100               	movlb	0	; () banked
  2943  0005DC  178B               	andwf	(??_IMUUpdateData+1)& (0+255),f,b
  2944  0005DE  0100               	movlb	0	; () banked
  2945  0005E0  518B               	movf	(??_IMUUpdateData+1)& (0+255),w,b
  2946  0005E2  0100               	movlb	0	; () banked
  2947  0005E4  0100               	movlb	0	; () banked
  2948  0005E6  6F8C               	movwf	IMUUpdateData@Temp_Var1& (0+255),b
  2949  0005E8  0100               	movlb	0	; () banked
  2950  0005EA  6B8D               	clrf	(IMUUpdateData@Temp_Var1+1)& (0+255),b
  2951                           
  2952                           ; BSR set to: 0
  2953                           ;IMUModule.c: 159: Temp_Var2 = IMURead(0x45,2);
  2954  0005EC  0100               	movlb	0	; () banked
  2955  0005EE  6F8A               	movwf	??_IMUUpdateData& (0+255),b
  2956  0005F0  0E02               	movlw	2
  2957  0005F2  0100               	movlb	0	; () banked
  2958  0005F4  0100               	movlb	0	; () banked
  2959  0005F6  6F70               	movwf	IMURead@Device& (0+255),b
  2960  0005F8  0100               	movlb	0	; () banked
  2961  0005FA  518A               	movf	??_IMUUpdateData& (0+255),w,b
  2962  0005FC  0E45               	movlw	69
  2963  0005FE  EC8E  F00F         	call	_IMURead
  2964  000602  0100               	movlb	0	; () banked
  2965  000604  6F8B               	movwf	(??_IMUUpdateData+1)& (0+255),b
  2966  000606  0100               	movlb	0	; () banked
  2967  000608  518B               	movf	(??_IMUUpdateData+1)& (0+255),w,b
  2968  00060A  0100               	movlb	0	; () banked
  2969  00060C  0100               	movlb	0	; () banked
  2970  00060E  6F8E               	movwf	IMUUpdateData@Temp_Var2& (0+255),b
  2971  000610  0100               	movlb	0	; () banked
  2972  000612  6B8F               	clrf	(IMUUpdateData@Temp_Var2+1)& (0+255),b
  2973                           
  2974                           ; BSR set to: 0
  2975                           ;IMUModule.c: 160: temp_data.YMagnetData = (Temp_Var2<<5)|Temp_Var1;
  2976  000614  0100               	movlb	0	; () banked
  2977  000616  C08E  F08A         	movff	IMUUpdateData@Temp_Var2,??_IMUUpdateData
  2978  00061A  0100               	movlb	0	; () banked
  2979  00061C  C08F  F08B         	movff	IMUUpdateData@Temp_Var2+1,??_IMUUpdateData+1
  2980  000620  0E05               	movlw	5
  2981  000622                     u2865:
  2982  000622  90D8               	bcf	status,0,c
  2983  000624  0100               	movlb	0	; () banked
  2984  000626  378A               	rlcf	??_IMUUpdateData& (0+255),f,b
  2985  000628  378B               	rlcf	(??_IMUUpdateData+1)& (0+255),f,b
  2986  00062A  2EE8               	decfsz	wreg,f,c
  2987  00062C  D7FA               	goto	u2865
  2988  00062E  0100               	movlb	0	; () banked
  2989  000630  0100               	movlb	0	; () banked
  2990  000632  518C               	movf	IMUUpdateData@Temp_Var1& (0+255),w,b
  2991  000634  0100               	movlb	0	; () banked
  2992  000636  118A               	iorwf	??_IMUUpdateData& (0+255),w,b
  2993  000638  0100               	movlb	0	; () banked
  2994  00063A  0100               	movlb	0	; () banked
  2995  00063C  6F9E               	movwf	(IMUUpdateData@temp_data+14)& (0+255),b
  2996  00063E  0100               	movlb	0	; () banked
  2997  000640  0100               	movlb	0	; () banked
  2998  000642  518D               	movf	(IMUUpdateData@Temp_Var1+1)& (0+255),w,b
  2999  000644  0100               	movlb	0	; () banked
  3000  000646  118B               	iorwf	(??_IMUUpdateData+1)& (0+255),w,b
  3001  000648  0100               	movlb	0	; () banked
  3002  00064A  6F9F               	movwf	(IMUUpdateData@temp_data+15)& (0+255),b
  3003                           
  3004                           ;IMUModule.c: 162: Temp_Var1=0;
  3005  00064C  0E00               	movlw	0
  3006  00064E  0100               	movlb	0	; () banked
  3007  000650  0100               	movlb	0	; () banked
  3008  000652  6F8D               	movwf	(IMUUpdateData@Temp_Var1+1)& (0+255),b
  3009  000654  0E00               	movlw	0
  3010  000656  0100               	movlb	0	; () banked
  3011  000658  6F8C               	movwf	IMUUpdateData@Temp_Var1& (0+255),b
  3012                           
  3013                           ;IMUModule.c: 163: Temp_Var2=0;
  3014  00065A  0E00               	movlw	0
  3015  00065C  0100               	movlb	0	; () banked
  3016  00065E  0100               	movlb	0	; () banked
  3017  000660  6F8F               	movwf	(IMUUpdateData@Temp_Var2+1)& (0+255),b
  3018  000662  0E00               	movlw	0
  3019  000664  0100               	movlb	0	; () banked
  3020  000666  6F8E               	movwf	IMUUpdateData@Temp_Var2& (0+255),b
  3021                           
  3022                           ; BSR set to: 0
  3023                           ;IMUModule.c: 164: Temp_Var1= (IMURead(0x46,2) & 0xF8)>>3;
  3024  000668  0100               	movlb	0	; () banked
  3025  00066A  6F8A               	movwf	??_IMUUpdateData& (0+255),b
  3026  00066C  0E02               	movlw	2
  3027  00066E  0100               	movlb	0	; () banked
  3028  000670  0100               	movlb	0	; () banked
  3029  000672  6F70               	movwf	IMURead@Device& (0+255),b
  3030  000674  0100               	movlb	0	; () banked
  3031  000676  518A               	movf	??_IMUUpdateData& (0+255),w,b
  3032  000678  0E46               	movlw	70
  3033  00067A  EC8E  F00F         	call	_IMURead
  3034  00067E  0100               	movlb	0	; () banked
  3035  000680  6F8B               	movwf	(??_IMUUpdateData+1)& (0+255),b
  3036  000682  0100               	movlb	0	; () banked
  3037  000684  90D8               	bcf	status,0,c
  3038  000686  338B               	rrcf	(??_IMUUpdateData+1)& (0+255),f,b
  3039  000688  0100               	movlb	0	; () banked
  3040  00068A  90D8               	bcf	status,0,c
  3041  00068C  338B               	rrcf	(??_IMUUpdateData+1)& (0+255),f,b
  3042  00068E  0100               	movlb	0	; () banked
  3043  000690  90D8               	bcf	status,0,c
  3044  000692  338B               	rrcf	(??_IMUUpdateData+1)& (0+255),f,b
  3045  000694  0E1F               	movlw	31
  3046  000696  0100               	movlb	0	; () banked
  3047  000698  178B               	andwf	(??_IMUUpdateData+1)& (0+255),f,b
  3048  00069A  0100               	movlb	0	; () banked
  3049  00069C  518B               	movf	(??_IMUUpdateData+1)& (0+255),w,b
  3050  00069E  0100               	movlb	0	; () banked
  3051  0006A0  0100               	movlb	0	; () banked
  3052  0006A2  6F8C               	movwf	IMUUpdateData@Temp_Var1& (0+255),b
  3053  0006A4  0100               	movlb	0	; () banked
  3054  0006A6  6B8D               	clrf	(IMUUpdateData@Temp_Var1+1)& (0+255),b
  3055                           
  3056                           ; BSR set to: 0
  3057                           ;IMUModule.c: 165: Temp_Var2 = IMURead(0x47,2);
  3058  0006A8  0100               	movlb	0	; () banked
  3059  0006AA  6F8A               	movwf	??_IMUUpdateData& (0+255),b
  3060  0006AC  0E02               	movlw	2
  3061  0006AE  0100               	movlb	0	; () banked
  3062  0006B0  0100               	movlb	0	; () banked
  3063  0006B2  6F70               	movwf	IMURead@Device& (0+255),b
  3064  0006B4  0100               	movlb	0	; () banked
  3065  0006B6  518A               	movf	??_IMUUpdateData& (0+255),w,b
  3066  0006B8  0E47               	movlw	71
  3067  0006BA  EC8E  F00F         	call	_IMURead
  3068  0006BE  0100               	movlb	0	; () banked
  3069  0006C0  6F8B               	movwf	(??_IMUUpdateData+1)& (0+255),b
  3070  0006C2  0100               	movlb	0	; () banked
  3071  0006C4  518B               	movf	(??_IMUUpdateData+1)& (0+255),w,b
  3072  0006C6  0100               	movlb	0	; () banked
  3073  0006C8  0100               	movlb	0	; () banked
  3074  0006CA  6F8E               	movwf	IMUUpdateData@Temp_Var2& (0+255),b
  3075  0006CC  0100               	movlb	0	; () banked
  3076  0006CE  6B8F               	clrf	(IMUUpdateData@Temp_Var2+1)& (0+255),b
  3077                           
  3078                           ; BSR set to: 0
  3079                           ;IMUModule.c: 166: temp_data.ZMagnetData = (Temp_Var2<<5)|Temp_Var1;
  3080  0006D0  0100               	movlb	0	; () banked
  3081  0006D2  C08E  F08A         	movff	IMUUpdateData@Temp_Var2,??_IMUUpdateData
  3082  0006D6  0100               	movlb	0	; () banked
  3083  0006D8  C08F  F08B         	movff	IMUUpdateData@Temp_Var2+1,??_IMUUpdateData+1
  3084  0006DC  0E05               	movlw	5
  3085  0006DE                     u2875:
  3086  0006DE  90D8               	bcf	status,0,c
  3087  0006E0  0100               	movlb	0	; () banked
  3088  0006E2  378A               	rlcf	??_IMUUpdateData& (0+255),f,b
  3089  0006E4  378B               	rlcf	(??_IMUUpdateData+1)& (0+255),f,b
  3090  0006E6  2EE8               	decfsz	wreg,f,c
  3091  0006E8  D7FA               	goto	u2875
  3092  0006EA  0100               	movlb	0	; () banked
  3093  0006EC  0100               	movlb	0	; () banked
  3094  0006EE  518C               	movf	IMUUpdateData@Temp_Var1& (0+255),w,b
  3095  0006F0  0100               	movlb	0	; () banked
  3096  0006F2  118A               	iorwf	??_IMUUpdateData& (0+255),w,b
  3097  0006F4  0100               	movlb	0	; () banked
  3098  0006F6  0100               	movlb	0	; () banked
  3099  0006F8  6FA0               	movwf	(IMUUpdateData@temp_data+16)& (0+255),b
  3100  0006FA  0100               	movlb	0	; () banked
  3101  0006FC  0100               	movlb	0	; () banked
  3102  0006FE  518D               	movf	(IMUUpdateData@Temp_Var1+1)& (0+255),w,b
  3103  000700  0100               	movlb	0	; () banked
  3104  000702  118B               	iorwf	(??_IMUUpdateData+1)& (0+255),w,b
  3105  000704  0100               	movlb	0	; () banked
  3106  000706  6FA1               	movwf	(IMUUpdateData@temp_data+17)& (0+255),b
  3107                           
  3108                           ; BSR set to: 0
  3109                           ;IMUModule.c: 168: Temp_Var1=0;
  3110  000708  0E00               	movlw	0
  3111  00070A  0100               	movlb	0	; () banked
  3112  00070C  0100               	movlb	0	; () banked
  3113  00070E  6F8D               	movwf	(IMUUpdateData@Temp_Var1+1)& (0+255),b
  3114  000710  0E00               	movlw	0
  3115  000712  0100               	movlb	0	; () banked
  3116  000714  6F8C               	movwf	IMUUpdateData@Temp_Var1& (0+255),b
  3117                           
  3118                           ; BSR set to: 0
  3119                           ;IMUModule.c: 169: Temp_Var2=0;
  3120  000716  0E00               	movlw	0
  3121  000718  0100               	movlb	0	; () banked
  3122  00071A  0100               	movlb	0	; () banked
  3123  00071C  6F8F               	movwf	(IMUUpdateData@Temp_Var2+1)& (0+255),b
  3124  00071E  0E00               	movlw	0
  3125  000720  0100               	movlb	0	; () banked
  3126  000722  6F8E               	movwf	IMUUpdateData@Temp_Var2& (0+255),b
  3127                           
  3128                           ; BSR set to: 0
  3129                           ;IMUModule.c: 170: Temp_Var1= (IMURead(0x48,2) & 0xFC)>>2;
  3130  000724  0100               	movlb	0	; () banked
  3131  000726  6F8A               	movwf	??_IMUUpdateData& (0+255),b
  3132  000728  0E02               	movlw	2
  3133  00072A  0100               	movlb	0	; () banked
  3134  00072C  0100               	movlb	0	; () banked
  3135  00072E  6F70               	movwf	IMURead@Device& (0+255),b
  3136  000730  0100               	movlb	0	; () banked
  3137  000732  518A               	movf	??_IMUUpdateData& (0+255),w,b
  3138  000734  0E48               	movlw	72
  3139  000736  EC8E  F00F         	call	_IMURead
  3140  00073A  0100               	movlb	0	; () banked
  3141  00073C  6F8B               	movwf	(??_IMUUpdateData+1)& (0+255),b
  3142  00073E  0100               	movlb	0	; () banked
  3143  000740  90D8               	bcf	status,0,c
  3144  000742  338B               	rrcf	(??_IMUUpdateData+1)& (0+255),f,b
  3145  000744  0100               	movlb	0	; () banked
  3146  000746  90D8               	bcf	status,0,c
  3147  000748  338B               	rrcf	(??_IMUUpdateData+1)& (0+255),f,b
  3148  00074A  0E3F               	movlw	63
  3149  00074C  0100               	movlb	0	; () banked
  3150  00074E  178B               	andwf	(??_IMUUpdateData+1)& (0+255),f,b
  3151  000750  0100               	movlb	0	; () banked
  3152  000752  518B               	movf	(??_IMUUpdateData+1)& (0+255),w,b
  3153  000754  0100               	movlb	0	; () banked
  3154  000756  0100               	movlb	0	; () banked
  3155  000758  6F8C               	movwf	IMUUpdateData@Temp_Var1& (0+255),b
  3156  00075A  0100               	movlb	0	; () banked
  3157  00075C  6B8D               	clrf	(IMUUpdateData@Temp_Var1+1)& (0+255),b
  3158                           
  3159                           ; BSR set to: 0
  3160                           ;IMUModule.c: 171: Temp_Var2 = IMURead(0x49,2);
  3161  00075E  0100               	movlb	0	; () banked
  3162  000760  6F8A               	movwf	??_IMUUpdateData& (0+255),b
  3163  000762  0E02               	movlw	2
  3164  000764  0100               	movlb	0	; () banked
  3165  000766  0100               	movlb	0	; () banked
  3166  000768  6F70               	movwf	IMURead@Device& (0+255),b
  3167  00076A  0100               	movlb	0	; () banked
  3168  00076C  518A               	movf	??_IMUUpdateData& (0+255),w,b
  3169  00076E  0E49               	movlw	73
  3170  000770  EC8E  F00F         	call	_IMURead
  3171  000774  0100               	movlb	0	; () banked
  3172  000776  6F8B               	movwf	(??_IMUUpdateData+1)& (0+255),b
  3173  000778  0100               	movlb	0	; () banked
  3174  00077A  518B               	movf	(??_IMUUpdateData+1)& (0+255),w,b
  3175  00077C  0100               	movlb	0	; () banked
  3176  00077E  0100               	movlb	0	; () banked
  3177  000780  6F8E               	movwf	IMUUpdateData@Temp_Var2& (0+255),b
  3178  000782  0100               	movlb	0	; () banked
  3179  000784  6B8F               	clrf	(IMUUpdateData@Temp_Var2+1)& (0+255),b
  3180                           
  3181                           ; BSR set to: 0
  3182                           ;IMUModule.c: 172: temp_data.MagnetResistance = (Temp_Var2<<6)|Temp_Var1;
  3183  000786  0100               	movlb	0	; () banked
  3184  000788  C08E  F08A         	movff	IMUUpdateData@Temp_Var2,??_IMUUpdateData
  3185  00078C  0100               	movlb	0	; () banked
  3186  00078E  C08F  F08B         	movff	IMUUpdateData@Temp_Var2+1,??_IMUUpdateData+1
  3187  000792  0E06               	movlw	6
  3188  000794                     u2885:
  3189  000794  90D8               	bcf	status,0,c
  3190  000796  0100               	movlb	0	; () banked
  3191  000798  378A               	rlcf	??_IMUUpdateData& (0+255),f,b
  3192  00079A  378B               	rlcf	(??_IMUUpdateData+1)& (0+255),f,b
  3193  00079C  2EE8               	decfsz	wreg,f,c
  3194  00079E  D7FA               	goto	u2885
  3195  0007A0  0100               	movlb	0	; () banked
  3196  0007A2  0100               	movlb	0	; () banked
  3197  0007A4  518C               	movf	IMUUpdateData@Temp_Var1& (0+255),w,b
  3198  0007A6  0100               	movlb	0	; () banked
  3199  0007A8  118A               	iorwf	??_IMUUpdateData& (0+255),w,b
  3200  0007AA  0100               	movlb	0	; () banked
  3201  0007AC  0100               	movlb	0	; () banked
  3202  0007AE  6FA2               	movwf	(IMUUpdateData@temp_data+18)& (0+255),b
  3203  0007B0  0100               	movlb	0	; () banked
  3204  0007B2  0100               	movlb	0	; () banked
  3205  0007B4  518D               	movf	(IMUUpdateData@Temp_Var1+1)& (0+255),w,b
  3206  0007B6  0100               	movlb	0	; () banked
  3207  0007B8  118B               	iorwf	(??_IMUUpdateData+1)& (0+255),w,b
  3208  0007BA  0100               	movlb	0	; () banked
  3209  0007BC  6FA3               	movwf	(IMUUpdateData@temp_data+19)& (0+255),b
  3210                           
  3211                           ; BSR set to: 0
  3212                           ;IMUModule.c: 176: temp_data.Temperature = IMURead(0x08,0);
  3213  0007BE  0100               	movlb	0	; () banked
  3214  0007C0  6F8A               	movwf	??_IMUUpdateData& (0+255),b
  3215  0007C2  0E00               	movlw	0
  3216  0007C4  0100               	movlb	0	; () banked
  3217  0007C6  0100               	movlb	0	; () banked
  3218  0007C8  6F70               	movwf	IMURead@Device& (0+255),b
  3219  0007CA  0100               	movlb	0	; () banked
  3220  0007CC  518A               	movf	??_IMUUpdateData& (0+255),w,b
  3221  0007CE  0E08               	movlw	8
  3222  0007D0  EC8E  F00F         	call	_IMURead
  3223  0007D4  0100               	movlb	0	; () banked
  3224  0007D6  0100               	movlb	0	; () banked
  3225  0007D8  6FA4               	movwf	(IMUUpdateData@temp_data+20)& (0+255),b
  3226                           
  3227                           ; BSR set to: 0
  3228                           ;IMUModule.c: 177: return temp_data;
  3229  0007DA  EE20  F0A4         	lfsr	2,IMUUpdateData@temp_data+20
  3230  0007DE  EE00  F089         	lfsr	0,?_IMUUpdateData+20
  3231  0007E2  0E15               	movlw	21
  3232  0007E4                     u2891:
  3233  0007E4  CFDD FFED          	movff	postdec2,postdec0
  3234  0007E8  2EE8               	decfsz	wreg,f,c
  3235  0007EA  D7FC               	goto	u2891
  3236  0007EC  2AE9               	incf	fsr0l,f,c
  3237  0007EE  22EA               	addwfc	fsr0h,f,c
  3238  0007F0  0012               	return	
  3239  0007F2                     __end_of_IMUUpdateData:
  3240                           	opt stack 0
  3241                           prodh	equ	0xFF4
  3242                           prodl	equ	0xFF3
  3243                           intcon	equ	0xFF2
  3244                           postinc0	equ	0xFEE
  3245                           postdec0	equ	0xFED
  3246                           fsr0h	equ	0xFEA
  3247                           fsr0l	equ	0xFE9
  3248                           wreg	equ	0xFE8
  3249                           postinc1	equ	0xFE6
  3250                           fsr1h	equ	0xFE2
  3251                           fsr1l	equ	0xFE1
  3252                           indf2	equ	0xFDF
  3253                           postinc2	equ	0xFDE
  3254                           postdec2	equ	0xFDD
  3255                           status	equ	0xFD8
  3256                           
  3257 ;; *************** function _IMUInitRegisters *****************
  3258 ;; Defined at:
  3259 ;;		line 31 in file "IMUModule.c"
  3260 ;; Parameters:    Size  Location     Type
  3261 ;;		None
  3262 ;; Auto vars:     Size  Location     Type
  3263 ;;		None
  3264 ;; Return value:  Size  Location     Type
  3265 ;;		None               void
  3266 ;; Registers used:
  3267 ;;		wreg, status,2, status,0, cstack
  3268 ;; Tracked objects:
  3269 ;;		On entry : 0/0
  3270 ;;		On exit  : 0/0
  3271 ;;		Unchanged: 0/0
  3272 ;; Data sizes:     COMRAM   BANK0   BANK1   BANK2   BANK3   BANK4   BANK5   BANK6   BANK7   BANK8   BANK9  BANK10  BANK1
      +1  BANK12  BANK13  BANK14
  3273 ;;      Params:         0       0       0       0       0       0       0       0       0       0       0       0       
      +0       0       0       0
  3274 ;;      Locals:         0       0       0       0       0       0       0       0       0       0       0       0       
      +0       0       0       0
  3275 ;;      Temps:          0       2       0       0       0       0       0       0       0       0       0       0       
      +0       0       0       0
  3276 ;;      Totals:         0       2       0       0       0       0       0       0       0       0       0       0       
      +0       0       0       0
  3277 ;;Total ram usage:        2 bytes
  3278 ;; Hardware stack levels used:    1
  3279 ;; Hardware stack levels required when called:    7
  3280 ;; This function calls:
  3281 ;;		_IMUWrite
  3282 ;; This function is called by:
  3283 ;;		_main
  3284 ;; This function uses a non-reentrant model
  3285 ;;
  3286                           
  3287                           	psect	text5
  3288  001268                     __ptext5:
  3289                           	opt stack 0
  3290  001268                     _IMUInitRegisters:
  3291                           	opt stack 22
  3292                           
  3293                           ;IMUModule.c: 34: IMUWrite(0x10,0x00,2);
  3294                           
  3295                           ; BSR set to: 0
  3296                           ;incstack = 0
  3297  001268  0100               	movlb	0	; () banked
  3298  00126A  6F76               	movwf	??_IMUInitRegisters& (0+255),b
  3299  00126C  0E00               	movlw	0
  3300  00126E  0100               	movlb	0	; () banked
  3301  001270  0100               	movlb	0	; () banked
  3302  001272  6F70               	movwf	IMUWrite@data& (0+255),b
  3303  001274  0100               	movlb	0	; () banked
  3304  001276  5176               	movf	??_IMUInitRegisters& (0+255),w,b
  3305  001278  0100               	movlb	0	; () banked
  3306  00127A  6F77               	movwf	(??_IMUInitRegisters+1)& (0+255),b
  3307  00127C  0E02               	movlw	2
  3308  00127E  0100               	movlb	0	; () banked
  3309  001280  0100               	movlb	0	; () banked
  3310  001282  6F71               	movwf	IMUWrite@Device& (0+255),b
  3311  001284  0100               	movlb	0	; () banked
  3312  001286  5177               	movf	(??_IMUInitRegisters+1)& (0+255),w,b
  3313  001288  0E10               	movlw	16
  3314  00128A  ECCC  F00F         	call	_IMUWrite
  3315                           
  3316                           ;IMUModule.c: 35: _delay((unsigned long)((1)*(64000000/4000.0)));
  3317  00128E  0E15               	movlw	21
  3318  001290  0100               	movlb	0	; () banked
  3319  001292  6F76               	movwf	??_IMUInitRegisters& (0+255),b
  3320  001294  0EC6               	movlw	198
  3321  001296                     u3437:
  3322  001296  2EE8               	decfsz	wreg,f,c
  3323  001298  D7FE               	goto	u3437
  3324  00129A  2F76               	decfsz	??_IMUInitRegisters& (0+255),f,b
  3325  00129C  D7FC               	goto	u3437
  3326  00129E  D000               	nop2	
  3327                           
  3328                           ;IMUModule.c: 37: IMUWrite(0x0F,0x01,1);
  3329  0012A0  0100               	movlb	0	; () banked
  3330  0012A2  6F76               	movwf	??_IMUInitRegisters& (0+255),b
  3331  0012A4  0E01               	movlw	1
  3332  0012A6  0100               	movlb	0	; () banked
  3333  0012A8  0100               	movlb	0	; () banked
  3334  0012AA  6F70               	movwf	IMUWrite@data& (0+255),b
  3335  0012AC  0100               	movlb	0	; () banked
  3336  0012AE  5176               	movf	??_IMUInitRegisters& (0+255),w,b
  3337  0012B0  0100               	movlb	0	; () banked
  3338  0012B2  6F77               	movwf	(??_IMUInitRegisters+1)& (0+255),b
  3339  0012B4  0E01               	movlw	1
  3340  0012B6  0100               	movlb	0	; () banked
  3341  0012B8  0100               	movlb	0	; () banked
  3342  0012BA  6F71               	movwf	IMUWrite@Device& (0+255),b
  3343  0012BC  0100               	movlb	0	; () banked
  3344  0012BE  5177               	movf	(??_IMUInitRegisters+1)& (0+255),w,b
  3345  0012C0  0E0F               	movlw	15
  3346  0012C2  ECCC  F00F         	call	_IMUWrite
  3347                           
  3348                           ;IMUModule.c: 38: _delay((unsigned long)((1)*(64000000/4000.0)));
  3349  0012C6  0E15               	movlw	21
  3350  0012C8  0100               	movlb	0	; () banked
  3351  0012CA  6F76               	movwf	??_IMUInitRegisters& (0+255),b
  3352  0012CC  0EC6               	movlw	198
  3353  0012CE                     u3447:
  3354  0012CE  2EE8               	decfsz	wreg,f,c
  3355  0012D0  D7FE               	goto	u3447
  3356  0012D2  2F76               	decfsz	??_IMUInitRegisters& (0+255),f,b
  3357  0012D4  D7FC               	goto	u3447
  3358  0012D6  D000               	nop2	
  3359                           
  3360                           ;IMUModule.c: 39: IMUWrite(0x10,0x07,1);
  3361  0012D8  0100               	movlb	0	; () banked
  3362  0012DA  6F76               	movwf	??_IMUInitRegisters& (0+255),b
  3363  0012DC  0E07               	movlw	7
  3364  0012DE  0100               	movlb	0	; () banked
  3365  0012E0  0100               	movlb	0	; () banked
  3366  0012E2  6F70               	movwf	IMUWrite@data& (0+255),b
  3367  0012E4  0100               	movlb	0	; () banked
  3368  0012E6  5176               	movf	??_IMUInitRegisters& (0+255),w,b
  3369  0012E8  0100               	movlb	0	; () banked
  3370  0012EA  6F77               	movwf	(??_IMUInitRegisters+1)& (0+255),b
  3371  0012EC  0E01               	movlw	1
  3372  0012EE  0100               	movlb	0	; () banked
  3373  0012F0  0100               	movlb	0	; () banked
  3374  0012F2  6F71               	movwf	IMUWrite@Device& (0+255),b
  3375  0012F4  0100               	movlb	0	; () banked
  3376  0012F6  5177               	movf	(??_IMUInitRegisters+1)& (0+255),w,b
  3377  0012F8  0E10               	movlw	16
  3378  0012FA  ECCC  F00F         	call	_IMUWrite
  3379                           
  3380                           ;IMUModule.c: 40: _delay((unsigned long)((1)*(64000000/4000.0)));
  3381  0012FE  0E15               	movlw	21
  3382  001300  0100               	movlb	0	; () banked
  3383  001302  6F76               	movwf	??_IMUInitRegisters& (0+255),b
  3384  001304  0EC6               	movlw	198
  3385  001306                     u3457:
  3386  001306  2EE8               	decfsz	wreg,f,c
  3387  001308  D7FE               	goto	u3457
  3388  00130A  2F76               	decfsz	??_IMUInitRegisters& (0+255),f,b
  3389  00130C  D7FC               	goto	u3457
  3390  00130E  D000               	nop2	
  3391                           
  3392                           ;IMUModule.c: 42: IMUWrite(0x4B,0x01,2);
  3393  001310  0100               	movlb	0	; () banked
  3394  001312  6F76               	movwf	??_IMUInitRegisters& (0+255),b
  3395  001314  0E01               	movlw	1
  3396  001316  0100               	movlb	0	; () banked
  3397  001318  0100               	movlb	0	; () banked
  3398  00131A  6F70               	movwf	IMUWrite@data& (0+255),b
  3399  00131C  0100               	movlb	0	; () banked
  3400  00131E  5176               	movf	??_IMUInitRegisters& (0+255),w,b
  3401  001320  0100               	movlb	0	; () banked
  3402  001322  6F77               	movwf	(??_IMUInitRegisters+1)& (0+255),b
  3403  001324  0E02               	movlw	2
  3404  001326  0100               	movlb	0	; () banked
  3405  001328  0100               	movlb	0	; () banked
  3406  00132A  6F71               	movwf	IMUWrite@Device& (0+255),b
  3407  00132C  0100               	movlb	0	; () banked
  3408  00132E  5177               	movf	(??_IMUInitRegisters+1)& (0+255),w,b
  3409  001330  0E4B               	movlw	75
  3410  001332  ECCC  F00F         	call	_IMUWrite
  3411                           
  3412                           ;IMUModule.c: 43: _delay((unsigned long)((1)*(64000000/4000.0)));
  3413  001336  0E15               	movlw	21
  3414  001338  0100               	movlb	0	; () banked
  3415  00133A  6F76               	movwf	??_IMUInitRegisters& (0+255),b
  3416  00133C  0EC6               	movlw	198
  3417  00133E                     u3467:
  3418  00133E  2EE8               	decfsz	wreg,f,c
  3419  001340  D7FE               	goto	u3467
  3420  001342  2F76               	decfsz	??_IMUInitRegisters& (0+255),f,b
  3421  001344  D7FC               	goto	u3467
  3422  001346  D000               	nop2	
  3423                           
  3424                           ;IMUModule.c: 44: IMUWrite(0x4E,0x05,2);
  3425  001348  0100               	movlb	0	; () banked
  3426  00134A  6F76               	movwf	??_IMUInitRegisters& (0+255),b
  3427  00134C  0E05               	movlw	5
  3428  00134E  0100               	movlb	0	; () banked
  3429  001350  0100               	movlb	0	; () banked
  3430  001352  6F70               	movwf	IMUWrite@data& (0+255),b
  3431  001354  0100               	movlb	0	; () banked
  3432  001356  5176               	movf	??_IMUInitRegisters& (0+255),w,b
  3433  001358  0100               	movlb	0	; () banked
  3434  00135A  6F77               	movwf	(??_IMUInitRegisters+1)& (0+255),b
  3435  00135C  0E02               	movlw	2
  3436  00135E  0100               	movlb	0	; () banked
  3437  001360  0100               	movlb	0	; () banked
  3438  001362  6F71               	movwf	IMUWrite@Device& (0+255),b
  3439  001364  0100               	movlb	0	; () banked
  3440  001366  5177               	movf	(??_IMUInitRegisters+1)& (0+255),w,b
  3441  001368  0E4E               	movlw	78
  3442  00136A  ECCC  F00F         	call	_IMUWrite
  3443                           
  3444                           ;IMUModule.c: 45: _delay((unsigned long)((1)*(64000000/4000.0)));
  3445  00136E  0E15               	movlw	21
  3446  001370  0100               	movlb	0	; () banked
  3447  001372  6F76               	movwf	??_IMUInitRegisters& (0+255),b
  3448  001374  0EC6               	movlw	198
  3449  001376                     u3477:
  3450  001376  2EE8               	decfsz	wreg,f,c
  3451  001378  D7FE               	goto	u3477
  3452  00137A  2F76               	decfsz	??_IMUInitRegisters& (0+255),f,b
  3453  00137C  D7FC               	goto	u3477
  3454  00137E  D000               	nop2	
  3455                           
  3456                           ;IMUModule.c: 46: IMUWrite(0x51,23,2);
  3457  001380  0100               	movlb	0	; () banked
  3458  001382  6F76               	movwf	??_IMUInitRegisters& (0+255),b
  3459  001384  0E17               	movlw	23
  3460  001386  0100               	movlb	0	; () banked
  3461  001388  0100               	movlb	0	; () banked
  3462  00138A  6F70               	movwf	IMUWrite@data& (0+255),b
  3463  00138C  0100               	movlb	0	; () banked
  3464  00138E  5176               	movf	??_IMUInitRegisters& (0+255),w,b
  3465  001390  0100               	movlb	0	; () banked
  3466  001392  6F77               	movwf	(??_IMUInitRegisters+1)& (0+255),b
  3467  001394  0E02               	movlw	2
  3468  001396  0100               	movlb	0	; () banked
  3469  001398  0100               	movlb	0	; () banked
  3470  00139A  6F71               	movwf	IMUWrite@Device& (0+255),b
  3471  00139C  0100               	movlb	0	; () banked
  3472  00139E  5177               	movf	(??_IMUInitRegisters+1)& (0+255),w,b
  3473  0013A0  0E51               	movlw	81
  3474  0013A2  ECCC  F00F         	call	_IMUWrite
  3475                           
  3476                           ;IMUModule.c: 47: _delay((unsigned long)((1)*(64000000/4000.0)));
  3477  0013A6  0E15               	movlw	21
  3478  0013A8  0100               	movlb	0	; () banked
  3479  0013AA  6F76               	movwf	??_IMUInitRegisters& (0+255),b
  3480  0013AC  0EC6               	movlw	198
  3481  0013AE                     u3487:
  3482  0013AE  2EE8               	decfsz	wreg,f,c
  3483  0013B0  D7FE               	goto	u3487
  3484  0013B2  2F76               	decfsz	??_IMUInitRegisters& (0+255),f,b
  3485  0013B4  D7FC               	goto	u3487
  3486  0013B6  D000               	nop2	
  3487                           
  3488                           ;IMUModule.c: 48: IMUWrite(0x51,82,2);
  3489  0013B8  0100               	movlb	0	; () banked
  3490  0013BA  6F76               	movwf	??_IMUInitRegisters& (0+255),b
  3491  0013BC  0E52               	movlw	82
  3492  0013BE  0100               	movlb	0	; () banked
  3493  0013C0  0100               	movlb	0	; () banked
  3494  0013C2  6F70               	movwf	IMUWrite@data& (0+255),b
  3495  0013C4  0100               	movlb	0	; () banked
  3496  0013C6  5176               	movf	??_IMUInitRegisters& (0+255),w,b
  3497  0013C8  0100               	movlb	0	; () banked
  3498  0013CA  6F77               	movwf	(??_IMUInitRegisters+1)& (0+255),b
  3499  0013CC  0E02               	movlw	2
  3500  0013CE  0100               	movlb	0	; () banked
  3501  0013D0  0100               	movlb	0	; () banked
  3502  0013D2  6F71               	movwf	IMUWrite@Device& (0+255),b
  3503  0013D4  0100               	movlb	0	; () banked
  3504  0013D6  5177               	movf	(??_IMUInitRegisters+1)& (0+255),w,b
  3505  0013D8  0E51               	movlw	81
  3506  0013DA  ECCC  F00F         	call	_IMUWrite
  3507                           
  3508                           ;IMUModule.c: 49: _delay((unsigned long)((1)*(64000000/4000.0)));
  3509  0013DE  0E15               	movlw	21
  3510  0013E0  0100               	movlb	0	; () banked
  3511  0013E2  6F76               	movwf	??_IMUInitRegisters& (0+255),b
  3512  0013E4  0EC6               	movlw	198
  3513  0013E6                     u3497:
  3514  0013E6  2EE8               	decfsz	wreg,f,c
  3515  0013E8  D7FE               	goto	u3497
  3516  0013EA  2F76               	decfsz	??_IMUInitRegisters& (0+255),f,b
  3517  0013EC  D7FC               	goto	u3497
  3518  0013EE  D000               	nop2	
  3519                           
  3520                           ;IMUModule.c: 50: IMUWrite(0x4C,0x28,2);
  3521  0013F0  0100               	movlb	0	; () banked
  3522  0013F2  6F76               	movwf	??_IMUInitRegisters& (0+255),b
  3523  0013F4  0E28               	movlw	40
  3524  0013F6  0100               	movlb	0	; () banked
  3525  0013F8  0100               	movlb	0	; () banked
  3526  0013FA  6F70               	movwf	IMUWrite@data& (0+255),b
  3527  0013FC  0100               	movlb	0	; () banked
  3528  0013FE  5176               	movf	??_IMUInitRegisters& (0+255),w,b
  3529  001400  0100               	movlb	0	; () banked
  3530  001402  6F77               	movwf	(??_IMUInitRegisters+1)& (0+255),b
  3531  001404  0E02               	movlw	2
  3532  001406  0100               	movlb	0	; () banked
  3533  001408  0100               	movlb	0	; () banked
  3534  00140A  6F71               	movwf	IMUWrite@Device& (0+255),b
  3535  00140C  0100               	movlb	0	; () banked
  3536  00140E  5177               	movf	(??_IMUInitRegisters+1)& (0+255),w,b
  3537  001410  0E4C               	movlw	76
  3538  001412  ECCC  F00F         	call	_IMUWrite
  3539                           
  3540                           ;IMUModule.c: 51: _delay((unsigned long)((1)*(64000000/4000.0)));
  3541  001416  0E15               	movlw	21
  3542  001418  0100               	movlb	0	; () banked
  3543  00141A  6F76               	movwf	??_IMUInitRegisters& (0+255),b
  3544  00141C  0EC6               	movlw	198
  3545  00141E                     u3507:
  3546  00141E  2EE8               	decfsz	wreg,f,c
  3547  001420  D7FE               	goto	u3507
  3548  001422  2F76               	decfsz	??_IMUInitRegisters& (0+255),f,b
  3549  001424  D7FC               	goto	u3507
  3550  001426  D000               	nop2	
  3551  001428  0012               	return	
  3552  00142A                     __end_of_IMUInitRegisters:
  3553                           	opt stack 0
  3554                           prodh	equ	0xFF4
  3555                           prodl	equ	0xFF3
  3556                           intcon	equ	0xFF2
  3557                           postinc0	equ	0xFEE
  3558                           postdec0	equ	0xFED
  3559                           fsr0h	equ	0xFEA
  3560                           fsr0l	equ	0xFE9
  3561                           wreg	equ	0xFE8
  3562                           postinc1	equ	0xFE6
  3563                           fsr1h	equ	0xFE2
  3564                           fsr1l	equ	0xFE1
  3565                           indf2	equ	0xFDF
  3566                           postinc2	equ	0xFDE
  3567                           postdec2	equ	0xFDD
  3568                           status	equ	0xFD8
  3569                           
  3570 ;; *************** function _IMUWrite *****************
  3571 ;; Defined at:
  3572 ;;		line 238 in file "IMUModule.c"
  3573 ;; Parameters:    Size  Location     Type
  3574 ;;  adress          1    wreg     unsigned char 
  3575 ;;  data            1   16[BANK0 ] unsigned char 
  3576 ;;  Device          1   17[BANK0 ] unsigned char 
  3577 ;; Auto vars:     Size  Location     Type
  3578 ;;  adress          1   20[BANK0 ] unsigned char 
  3579 ;;  TempData        1   21[BANK0 ] unsigned char 
  3580 ;;  Result          1   19[BANK0 ] unsigned char 
  3581 ;; Return value:  Size  Location     Type
  3582 ;;		None               void
  3583 ;; Registers used:
  3584 ;;		wreg, status,2, status,0, cstack
  3585 ;; Tracked objects:
  3586 ;;		On entry : 0/0
  3587 ;;		On exit  : 0/0
  3588 ;;		Unchanged: 0/0
  3589 ;; Data sizes:     COMRAM   BANK0   BANK1   BANK2   BANK3   BANK4   BANK5   BANK6   BANK7   BANK8   BANK9  BANK10  BANK1
      +1  BANK12  BANK13  BANK14
  3590 ;;      Params:         0       2       0       0       0       0       0       0       0       0       0       0       
      +0       0       0       0
  3591 ;;      Locals:         0       3       0       0       0       0       0       0       0       0       0       0       
      +0       0       0       0
  3592 ;;      Temps:          0       1       0       0       0       0       0       0       0       0       0       0       
      +0       0       0       0
  3593 ;;      Totals:         0       6       0       0       0       0       0       0       0       0       0       0       
      +0       0       0       0
  3594 ;;Total ram usage:        6 bytes
  3595 ;; Hardware stack levels used:    1
  3596 ;; Hardware stack levels required when called:    6
  3597 ;; This function calls:
  3598 ;;		_SPIWrite
  3599 ;; This function is called by:
  3600 ;;		_IMUInitRegisters
  3601 ;; This function uses a non-reentrant model
  3602 ;;
  3603                           
  3604                           	psect	text6
  3605  001F98                     __ptext6:
  3606                           	opt stack 0
  3607  001F98                     _IMUWrite:
  3608                           	opt stack 22
  3609                           
  3610                           ;incstack = 0
  3611                           ;IMUWrite@adress stored from wreg
  3612  001F98  CFE8 F074          	movff	wreg,IMUWrite@adress
  3613                           
  3614                           ;IMUModule.c: 240: char TempData=0;
  3615  001F9C  0100               	movlb	0	; () banked
  3616  001F9E  6F72               	movwf	??_IMUWrite& (0+255),b
  3617  001FA0  0E00               	movlw	0
  3618  001FA2  0100               	movlb	0	; () banked
  3619  001FA4  0100               	movlb	0	; () banked
  3620  001FA6  6F75               	movwf	IMUWrite@TempData& (0+255),b
  3621  001FA8  0100               	movlb	0	; () banked
  3622  001FAA  5172               	movf	??_IMUWrite& (0+255),w,b
  3623                           
  3624                           ;IMUModule.c: 241: char Result=0;
  3625  001FAC  0100               	movlb	0	; () banked
  3626  001FAE  6F72               	movwf	??_IMUWrite& (0+255),b
  3627  001FB0  0E00               	movlw	0
  3628  001FB2  0100               	movlb	0	; () banked
  3629  001FB4  0100               	movlb	0	; () banked
  3630  001FB6  6F73               	movwf	IMUWrite@Result& (0+255),b
  3631  001FB8  0100               	movlb	0	; () banked
  3632  001FBA  5172               	movf	??_IMUWrite& (0+255),w,b
  3633                           
  3634                           ; BSR set to: 0
  3635                           ;IMUModule.c: 243: TempData = (adress & 0b01111111);
  3636  001FBC  0100               	movlb	0	; () banked
  3637  001FBE  0100               	movlb	0	; () banked
  3638  001FC0  5174               	movf	IMUWrite@adress& (0+255),w,b
  3639  001FC2  0B7F               	andlw	127
  3640  001FC4  0100               	movlb	0	; () banked
  3641  001FC6  0100               	movlb	0	; () banked
  3642  001FC8  6F75               	movwf	IMUWrite@TempData& (0+255),b
  3643                           
  3644                           ; BSR set to: 0
  3645                           ;IMUModule.c: 245: if(Device==0)
  3646  001FCA  0100               	movlb	0	; () banked
  3647  001FCC  0100               	movlb	0	; () banked
  3648  001FCE  6771               	tstfsz	IMUWrite@Device& (0+255),b
  3649  001FD0  D002               	goto	l4362
  3650                           
  3651                           ; BSR set to: 0
  3652                           ;IMUModule.c: 246: LATCbits.LATC2 = 0;
  3653  001FD2  948B               	bcf	3979,2,c	;volatile
  3654  001FD4  D00D               	goto	l4370
  3655  001FD6                     l4362:
  3656                           
  3657                           ; BSR set to: 0
  3658                           ;IMUModule.c: 247: else if(Device==1)
  3659  001FD6  0100               	movlb	0	; () banked
  3660  001FD8  0100               	movlb	0	; () banked
  3661  001FDA  0571               	decf	IMUWrite@Device& (0+255),w,b
  3662  001FDC  A4D8               	btfss	status,2,c
  3663  001FDE  D002               	goto	l4366
  3664                           
  3665                           ; BSR set to: 0
  3666                           ;IMUModule.c: 248: LATCbits.LATC1 = 0;
  3667  001FE0  928B               	bcf	3979,1,c	;volatile
  3668  001FE2  D006               	goto	l4370
  3669  001FE4                     l4366:
  3670                           
  3671                           ; BSR set to: 0
  3672                           ;IMUModule.c: 249: else if(Device==2)
  3673  001FE4  0100               	movlb	0	; () banked
  3674  001FE6  0100               	movlb	0	; () banked
  3675  001FE8  5171               	movf	IMUWrite@Device& (0+255),w,b
  3676  001FEA  0A02               	xorlw	2
  3677  001FEC  B4D8               	btfsc	status,2,c
  3678                           
  3679                           ; BSR set to: 0
  3680                           ;IMUModule.c: 250: LATCbits.LATC0=0;
  3681  001FEE  908B               	bcf	3979,0,c	;volatile
  3682  001FF0                     l4370:
  3683                           
  3684                           ; BSR set to: 0
  3685                           ;IMUModule.c: 253: SPIWrite(TempData);
  3686  001FF0  0100               	movlb	0	; () banked
  3687  001FF2  0100               	movlb	0	; () banked
  3688  001FF4  5175               	movf	IMUWrite@TempData& (0+255),w,b
  3689  001FF6  EC61  F011         	call	_SPIWrite
  3690                           
  3691                           ;IMUModule.c: 254: SPIWrite(data);
  3692  001FFA  0100               	movlb	0	; () banked
  3693  001FFC  0100               	movlb	0	; () banked
  3694  001FFE  5170               	movf	IMUWrite@data& (0+255),w,b
  3695  002000  EC61  F011         	call	_SPIWrite
  3696                           
  3697                           ;IMUModule.c: 256: LATCbits.LATC2 = 1;
  3698  002004  848B               	bsf	3979,2,c	;volatile
  3699                           
  3700                           ;IMUModule.c: 257: LATCbits.LATC1 = 1;
  3701  002006  828B               	bsf	3979,1,c	;volatile
  3702                           
  3703                           ;IMUModule.c: 258: LATCbits.LATC0=1;
  3704  002008  808B               	bsf	3979,0,c	;volatile
  3705  00200A  0012               	return	
  3706  00200C                     __end_of_IMUWrite:
  3707                           	opt stack 0
  3708                           prodh	equ	0xFF4
  3709                           prodl	equ	0xFF3
  3710                           intcon	equ	0xFF2
  3711                           postinc0	equ	0xFEE
  3712                           postdec0	equ	0xFED
  3713                           fsr0h	equ	0xFEA
  3714                           fsr0l	equ	0xFE9
  3715                           wreg	equ	0xFE8
  3716                           postinc1	equ	0xFE6
  3717                           fsr1h	equ	0xFE2
  3718                           fsr1l	equ	0xFE1
  3719                           indf2	equ	0xFDF
  3720                           postinc2	equ	0xFDE
  3721                           postdec2	equ	0xFDD
  3722                           status	equ	0xFD8
  3723                           
  3724 ;; *************** function _IMUAutotest *****************
  3725 ;; Defined at:
  3726 ;;		line 69 in file "IMUModule.c"
  3727 ;; Parameters:    Size  Location     Type
  3728 ;;		None
  3729 ;; Auto vars:     Size  Location     Type
  3730 ;;  Result          1   23[BANK0 ] unsigned char 
  3731 ;;  TempVar         1   22[BANK0 ] unsigned char 
  3732 ;; Return value:  Size  Location     Type
  3733 ;;                  1    wreg      unsigned char 
  3734 ;; Registers used:
  3735 ;;		wreg, status,2, status,0, cstack
  3736 ;; Tracked objects:
  3737 ;;		On entry : 0/0
  3738 ;;		On exit  : 0/0
  3739 ;;		Unchanged: 0/0
  3740 ;; Data sizes:     COMRAM   BANK0   BANK1   BANK2   BANK3   BANK4   BANK5   BANK6   BANK7   BANK8   BANK9  BANK10  BANK1
      +1  BANK12  BANK13  BANK14
  3741 ;;      Params:         0       0       0       0       0       0       0       0       0       0       0       0       
      +0       0       0       0
  3742 ;;      Locals:         0       2       0       0       0       0       0       0       0       0       0       0       
      +0       0       0       0
  3743 ;;      Temps:          0       1       0       0       0       0       0       0       0       0       0       0       
      +0       0       0       0
  3744 ;;      Totals:         0       3       0       0       0       0       0       0       0       0       0       0       
      +0       0       0       0
  3745 ;;Total ram usage:        3 bytes
  3746 ;; Hardware stack levels used:    1
  3747 ;; Hardware stack levels required when called:    7
  3748 ;; This function calls:
  3749 ;;		_IMURead
  3750 ;; This function is called by:
  3751 ;;		_main
  3752 ;; This function uses a non-reentrant model
  3753 ;;
  3754                           
  3755                           	psect	text7
  3756  001BBA                     __ptext7:
  3757                           	opt stack 0
  3758  001BBA                     _IMUAutotest:
  3759                           	opt stack 22
  3760                           
  3761                           ;IMUModule.c: 71: unsigned char Result, TempVar;
  3762                           ;IMUModule.c: 73: Result=0;
  3763                           
  3764                           ;incstack = 0
  3765  001BBA  0100               	movlb	0	; () banked
  3766  001BBC  6F75               	movwf	??_IMUAutotest& (0+255),b
  3767  001BBE  0E00               	movlw	0
  3768  001BC0  0100               	movlb	0	; () banked
  3769  001BC2  0100               	movlb	0	; () banked
  3770  001BC4  6F77               	movwf	IMUAutotest@Result& (0+255),b
  3771  001BC6  0100               	movlb	0	; () banked
  3772  001BC8  5175               	movf	??_IMUAutotest& (0+255),w,b
  3773                           
  3774                           ; BSR set to: 0
  3775                           ;IMUModule.c: 75: TempVar = IMURead(0x00,0);
  3776  001BCA  0100               	movlb	0	; () banked
  3777  001BCC  6F75               	movwf	??_IMUAutotest& (0+255),b
  3778  001BCE  0E00               	movlw	0
  3779  001BD0  0100               	movlb	0	; () banked
  3780  001BD2  0100               	movlb	0	; () banked
  3781  001BD4  6F70               	movwf	IMURead@Device& (0+255),b
  3782  001BD6  0100               	movlb	0	; () banked
  3783  001BD8  5175               	movf	??_IMUAutotest& (0+255),w,b
  3784  001BDA  0E00               	movlw	0
  3785  001BDC  EC8E  F00F         	call	_IMURead
  3786  001BE0  0100               	movlb	0	; () banked
  3787  001BE2  0100               	movlb	0	; () banked
  3788  001BE4  6F76               	movwf	IMUAutotest@TempVar& (0+255),b
  3789                           
  3790                           ; BSR set to: 0
  3791                           ;IMUModule.c: 76: if(TempVar==0xFA)
  3792  001BE6  0100               	movlb	0	; () banked
  3793  001BE8  0100               	movlb	0	; () banked
  3794  001BEA  5176               	movf	IMUAutotest@TempVar& (0+255),w,b
  3795  001BEC  0AFA               	xorlw	250
  3796  001BEE  A4D8               	btfss	status,2,c
  3797  001BF0  D007               	goto	l3916
  3798                           
  3799                           ; BSR set to: 0
  3800                           ;IMUModule.c: 77: Result = Result | 0x01;
  3801  001BF2  0100               	movlb	0	; () banked
  3802  001BF4  0100               	movlb	0	; () banked
  3803  001BF6  5177               	movf	IMUAutotest@Result& (0+255),w,b
  3804  001BF8  0901               	iorlw	1
  3805  001BFA  0100               	movlb	0	; () banked
  3806  001BFC  0100               	movlb	0	; () banked
  3807  001BFE  6F77               	movwf	IMUAutotest@Result& (0+255),b
  3808  001C00                     l3916:
  3809                           
  3810                           ; BSR set to: 0
  3811                           ;IMUModule.c: 79: TempVar = IMURead(0x00,1);
  3812  001C00  0100               	movlb	0	; () banked
  3813  001C02  6F75               	movwf	??_IMUAutotest& (0+255),b
  3814  001C04  0E01               	movlw	1
  3815  001C06  0100               	movlb	0	; () banked
  3816  001C08  0100               	movlb	0	; () banked
  3817  001C0A  6F70               	movwf	IMURead@Device& (0+255),b
  3818  001C0C  0100               	movlb	0	; () banked
  3819  001C0E  5175               	movf	??_IMUAutotest& (0+255),w,b
  3820  001C10  0E00               	movlw	0
  3821  001C12  EC8E  F00F         	call	_IMURead
  3822  001C16  0100               	movlb	0	; () banked
  3823  001C18  0100               	movlb	0	; () banked
  3824  001C1A  6F76               	movwf	IMUAutotest@TempVar& (0+255),b
  3825                           
  3826                           ; BSR set to: 0
  3827                           ;IMUModule.c: 80: if(TempVar==0x0F)
  3828  001C1C  0100               	movlb	0	; () banked
  3829  001C1E  0100               	movlb	0	; () banked
  3830  001C20  5176               	movf	IMUAutotest@TempVar& (0+255),w,b
  3831  001C22  0A0F               	xorlw	15
  3832  001C24  A4D8               	btfss	status,2,c
  3833  001C26  D007               	goto	l3922
  3834                           
  3835                           ; BSR set to: 0
  3836                           ;IMUModule.c: 81: Result = Result | 0x02;
  3837  001C28  0100               	movlb	0	; () banked
  3838  001C2A  0100               	movlb	0	; () banked
  3839  001C2C  5177               	movf	IMUAutotest@Result& (0+255),w,b
  3840  001C2E  0902               	iorlw	2
  3841  001C30  0100               	movlb	0	; () banked
  3842  001C32  0100               	movlb	0	; () banked
  3843  001C34  6F77               	movwf	IMUAutotest@Result& (0+255),b
  3844  001C36                     l3922:
  3845                           
  3846                           ; BSR set to: 0
  3847                           ;IMUModule.c: 83: TempVar = IMURead(0x40,2);
  3848  001C36  0100               	movlb	0	; () banked
  3849  001C38  6F75               	movwf	??_IMUAutotest& (0+255),b
  3850  001C3A  0E02               	movlw	2
  3851  001C3C  0100               	movlb	0	; () banked
  3852  001C3E  0100               	movlb	0	; () banked
  3853  001C40  6F70               	movwf	IMURead@Device& (0+255),b
  3854  001C42  0100               	movlb	0	; () banked
  3855  001C44  5175               	movf	??_IMUAutotest& (0+255),w,b
  3856  001C46  0E40               	movlw	64
  3857  001C48  EC8E  F00F         	call	_IMURead
  3858  001C4C  0100               	movlb	0	; () banked
  3859  001C4E  0100               	movlb	0	; () banked
  3860  001C50  6F76               	movwf	IMUAutotest@TempVar& (0+255),b
  3861                           
  3862                           ; BSR set to: 0
  3863                           ;IMUModule.c: 84: if(TempVar==0x32)
  3864  001C52  0100               	movlb	0	; () banked
  3865  001C54  0100               	movlb	0	; () banked
  3866  001C56  5176               	movf	IMUAutotest@TempVar& (0+255),w,b
  3867  001C58  0A32               	xorlw	50
  3868  001C5A  A4D8               	btfss	status,2,c
  3869  001C5C  D007               	goto	l3928
  3870                           
  3871                           ; BSR set to: 0
  3872                           ;IMUModule.c: 85: Result = Result | 0x04;
  3873  001C5E  0100               	movlb	0	; () banked
  3874  001C60  0100               	movlb	0	; () banked
  3875  001C62  5177               	movf	IMUAutotest@Result& (0+255),w,b
  3876  001C64  0904               	iorlw	4
  3877  001C66  0100               	movlb	0	; () banked
  3878  001C68  0100               	movlb	0	; () banked
  3879  001C6A  6F77               	movwf	IMUAutotest@Result& (0+255),b
  3880  001C6C                     l3928:
  3881                           
  3882                           ; BSR set to: 0
  3883                           ;IMUModule.c: 87: return Result;
  3884  001C6C  0100               	movlb	0	; () banked
  3885  001C6E  0100               	movlb	0	; () banked
  3886  001C70  5177               	movf	IMUAutotest@Result& (0+255),w,b
  3887  001C72  0012               	return	
  3888  001C74                     __end_of_IMUAutotest:
  3889                           	opt stack 0
  3890                           prodh	equ	0xFF4
  3891                           prodl	equ	0xFF3
  3892                           intcon	equ	0xFF2
  3893                           postinc0	equ	0xFEE
  3894                           postdec0	equ	0xFED
  3895                           fsr0h	equ	0xFEA
  3896                           fsr0l	equ	0xFE9
  3897                           wreg	equ	0xFE8
  3898                           postinc1	equ	0xFE6
  3899                           fsr1h	equ	0xFE2
  3900                           fsr1l	equ	0xFE1
  3901                           indf2	equ	0xFDF
  3902                           postinc2	equ	0xFDE
  3903                           postdec2	equ	0xFDD
  3904                           status	equ	0xFD8
  3905                           
  3906 ;; *************** function _IMURead *****************
  3907 ;; Defined at:
  3908 ;;		line 197 in file "IMUModule.c"
  3909 ;; Parameters:    Size  Location     Type
  3910 ;;  adress          1    wreg     unsigned char 
  3911 ;;  Device          1   16[BANK0 ] unsigned char 
  3912 ;; Auto vars:     Size  Location     Type
  3913 ;;  adress          1   18[BANK0 ] unsigned char 
  3914 ;;  Result          1   20[BANK0 ] unsigned char 
  3915 ;;  TempData        1   19[BANK0 ] unsigned char 
  3916 ;; Return value:  Size  Location     Type
  3917 ;;                  1    wreg      unsigned char 
  3918 ;; Registers used:
  3919 ;;		wreg, status,2, status,0, cstack
  3920 ;; Tracked objects:
  3921 ;;		On entry : 0/0
  3922 ;;		On exit  : 0/0
  3923 ;;		Unchanged: 0/0
  3924 ;; Data sizes:     COMRAM   BANK0   BANK1   BANK2   BANK3   BANK4   BANK5   BANK6   BANK7   BANK8   BANK9  BANK10  BANK1
      +1  BANK12  BANK13  BANK14
  3925 ;;      Params:         0       1       0       0       0       0       0       0       0       0       0       0       
      +0       0       0       0
  3926 ;;      Locals:         0       3       0       0       0       0       0       0       0       0       0       0       
      +0       0       0       0
  3927 ;;      Temps:          0       1       0       0       0       0       0       0       0       0       0       0       
      +0       0       0       0
  3928 ;;      Totals:         0       5       0       0       0       0       0       0       0       0       0       0       
      +0       0       0       0
  3929 ;;Total ram usage:        5 bytes
  3930 ;; Hardware stack levels used:    1
  3931 ;; Hardware stack levels required when called:    6
  3932 ;; This function calls:
  3933 ;;		_SPIRead
  3934 ;;		_SPIWrite
  3935 ;; This function is called by:
  3936 ;;		_IMUAutotest
  3937 ;;		_IMUUpdateData
  3938 ;; This function uses a non-reentrant model
  3939 ;;
  3940                           
  3941                           	psect	text8
  3942  001F1C                     __ptext8:
  3943                           	opt stack 0
  3944  001F1C                     _IMURead:
  3945                           	opt stack 22
  3946                           
  3947                           ; BSR set to: 0
  3948                           ;incstack = 0
  3949                           ;IMURead@adress stored from wreg
  3950  001F1C  CFE8 F072          	movff	wreg,IMURead@adress
  3951                           
  3952                           ;IMUModule.c: 199: char TempData=0;
  3953  001F20  0100               	movlb	0	; () banked
  3954  001F22  6F71               	movwf	??_IMURead& (0+255),b
  3955  001F24  0E00               	movlw	0
  3956  001F26  0100               	movlb	0	; () banked
  3957  001F28  0100               	movlb	0	; () banked
  3958  001F2A  6F73               	movwf	IMURead@TempData& (0+255),b
  3959  001F2C  0100               	movlb	0	; () banked
  3960  001F2E  5171               	movf	??_IMURead& (0+255),w,b
  3961                           
  3962                           ;IMUModule.c: 200: char Result=0;
  3963  001F30  0100               	movlb	0	; () banked
  3964  001F32  6F71               	movwf	??_IMURead& (0+255),b
  3965  001F34  0E00               	movlw	0
  3966  001F36  0100               	movlb	0	; () banked
  3967  001F38  0100               	movlb	0	; () banked
  3968  001F3A  6F74               	movwf	IMURead@Result& (0+255),b
  3969  001F3C  0100               	movlb	0	; () banked
  3970  001F3E  5171               	movf	??_IMURead& (0+255),w,b
  3971                           
  3972                           ; BSR set to: 0
  3973                           ;IMUModule.c: 203: TempData = (adress | 0b10000000);
  3974  001F40  0100               	movlb	0	; () banked
  3975  001F42  0100               	movlb	0	; () banked
  3976  001F44  5172               	movf	IMURead@adress& (0+255),w,b
  3977  001F46  0980               	iorlw	128
  3978  001F48  0100               	movlb	0	; () banked
  3979  001F4A  0100               	movlb	0	; () banked
  3980  001F4C  6F73               	movwf	IMURead@TempData& (0+255),b
  3981                           
  3982                           ; BSR set to: 0
  3983                           ;IMUModule.c: 205: if(Device==0)
  3984  001F4E  0100               	movlb	0	; () banked
  3985  001F50  0100               	movlb	0	; () banked
  3986  001F52  6770               	tstfsz	IMURead@Device& (0+255),b
  3987  001F54  D002               	goto	l4386
  3988                           
  3989                           ; BSR set to: 0
  3990                           ;IMUModule.c: 206: LATCbits.LATC2 = 0;
  3991  001F56  948B               	bcf	3979,2,c	;volatile
  3992  001F58  D00D               	goto	l4394
  3993  001F5A                     l4386:
  3994                           
  3995                           ; BSR set to: 0
  3996                           ;IMUModule.c: 207: else if(Device==1)
  3997  001F5A  0100               	movlb	0	; () banked
  3998  001F5C  0100               	movlb	0	; () banked
  3999  001F5E  0570               	decf	IMURead@Device& (0+255),w,b
  4000  001F60  A4D8               	btfss	status,2,c
  4001  001F62  D002               	goto	l4390
  4002                           
  4003                           ; BSR set to: 0
  4004                           ;IMUModule.c: 208: LATCbits.LATC1 = 0;
  4005  001F64  928B               	bcf	3979,1,c	;volatile
  4006  001F66  D006               	goto	l4394
  4007  001F68                     l4390:
  4008                           
  4009                           ; BSR set to: 0
  4010                           ;IMUModule.c: 209: else if(Device==2)
  4011  001F68  0100               	movlb	0	; () banked
  4012  001F6A  0100               	movlb	0	; () banked
  4013  001F6C  5170               	movf	IMURead@Device& (0+255),w,b
  4014  001F6E  0A02               	xorlw	2
  4015  001F70  B4D8               	btfsc	status,2,c
  4016                           
  4017                           ; BSR set to: 0
  4018                           ;IMUModule.c: 210: LATCbits.LATC0=0;
  4019  001F72  908B               	bcf	3979,0,c	;volatile
  4020  001F74                     l4394:
  4021                           
  4022                           ; BSR set to: 0
  4023                           ;IMUModule.c: 212: SPIWrite(TempData);
  4024  001F74  0100               	movlb	0	; () banked
  4025  001F76  0100               	movlb	0	; () banked
  4026  001F78  5173               	movf	IMURead@TempData& (0+255),w,b
  4027  001F7A  EC61  F011         	call	_SPIWrite
  4028                           
  4029                           ;IMUModule.c: 213: Result = SPIRead(0);
  4030  001F7E  0E00               	movlw	0
  4031  001F80  EC2B  F011         	call	_SPIRead
  4032  001F84  0100               	movlb	0	; () banked
  4033  001F86  0100               	movlb	0	; () banked
  4034  001F88  6F74               	movwf	IMURead@Result& (0+255),b
  4035                           
  4036                           ; BSR set to: 0
  4037                           ;IMUModule.c: 215: LATCbits.LATC2 = 1;
  4038  001F8A  848B               	bsf	3979,2,c	;volatile
  4039                           
  4040                           ; BSR set to: 0
  4041                           ;IMUModule.c: 216: LATCbits.LATC1 = 1;
  4042  001F8C  828B               	bsf	3979,1,c	;volatile
  4043                           
  4044                           ; BSR set to: 0
  4045                           ;IMUModule.c: 217: LATCbits.LATC0= 1;
  4046  001F8E  808B               	bsf	3979,0,c	;volatile
  4047                           
  4048                           ; BSR set to: 0
  4049                           ;IMUModule.c: 219: return Result;
  4050  001F90  0100               	movlb	0	; () banked
  4051  001F92  0100               	movlb	0	; () banked
  4052  001F94  5174               	movf	IMURead@Result& (0+255),w,b
  4053  001F96  0012               	return	
  4054  001F98                     __end_of_IMURead:
  4055                           	opt stack 0
  4056                           prodh	equ	0xFF4
  4057                           prodl	equ	0xFF3
  4058                           intcon	equ	0xFF2
  4059                           postinc0	equ	0xFEE
  4060                           postdec0	equ	0xFED
  4061                           fsr0h	equ	0xFEA
  4062                           fsr0l	equ	0xFE9
  4063                           wreg	equ	0xFE8
  4064                           postinc1	equ	0xFE6
  4065                           fsr1h	equ	0xFE2
  4066                           fsr1l	equ	0xFE1
  4067                           indf2	equ	0xFDF
  4068                           postinc2	equ	0xFDE
  4069                           postdec2	equ	0xFDD
  4070                           status	equ	0xFD8
  4071                           
  4072 ;; *************** function _SPIWrite *****************
  4073 ;; Defined at:
  4074 ;;		line 235 in file "system.c"
  4075 ;; Parameters:    Size  Location     Type
  4076 ;;  data            1    wreg     unsigned char 
  4077 ;; Auto vars:     Size  Location     Type
  4078 ;;  data            1   15[BANK0 ] unsigned char 
  4079 ;;  TempVar         1   14[BANK0 ] unsigned char 
  4080 ;; Return value:  Size  Location     Type
  4081 ;;                  1    wreg      char 
  4082 ;; Registers used:
  4083 ;;		wreg
  4084 ;; Tracked objects:
  4085 ;;		On entry : 0/0
  4086 ;;		On exit  : 0/0
  4087 ;;		Unchanged: 0/0
  4088 ;; Data sizes:     COMRAM   BANK0   BANK1   BANK2   BANK3   BANK4   BANK5   BANK6   BANK7   BANK8   BANK9  BANK10  BANK1
      +1  BANK12  BANK13  BANK14
  4089 ;;      Params:         0       0       0       0       0       0       0       0       0       0       0       0       
      +0       0       0       0
  4090 ;;      Locals:         0       2       0       0       0       0       0       0       0       0       0       0       
      +0       0       0       0
  4091 ;;      Temps:          0       0       0       0       0       0       0       0       0       0       0       0       
      +0       0       0       0
  4092 ;;      Totals:         0       2       0       0       0       0       0       0       0       0       0       0       
      +0       0       0       0
  4093 ;;Total ram usage:        2 bytes
  4094 ;; Hardware stack levels used:    1
  4095 ;; Hardware stack levels required when called:    5
  4096 ;; This function calls:
  4097 ;;		Nothing
  4098 ;; This function is called by:
  4099 ;;		_IMURead
  4100 ;;		_IMUWrite
  4101 ;;		_ISMReadConfig
  4102 ;;		_ISMWriteConfig
  4103 ;;		_ISMWriteData
  4104 ;; This function uses a non-reentrant model
  4105 ;;
  4106                           
  4107                           	psect	text9
  4108  0022C2                     __ptext9:
  4109                           	opt stack 0
  4110  0022C2                     _SPIWrite:
  4111                           	opt stack 22
  4112                           
  4113                           ; BSR set to: 0
  4114                           ;incstack = 0
  4115                           ;SPIWrite@data stored from wreg
  4116  0022C2  CFE8 F06F          	movff	wreg,SPIWrite@data
  4117                           
  4118                           ;system.c: 237: unsigned char TempVar;
  4119                           ;system.c: 238: INTCONbits.GIE=0;
  4120  0022C6  9EF2               	bcf	intcon,7,c	;volatile
  4121                           
  4122                           ;system.c: 240: TempVar = SSPBUF;
  4123  0022C8  CFC9 F06E          	movff	4041,SPIWrite@TempVar	;volatile
  4124                           
  4125                           ;system.c: 241: PIR1bits.SSPIF = 0;
  4126  0022CC  969E               	bcf	3998,3,c	;volatile
  4127                           
  4128                           ;system.c: 242: SSPCON1bits.WCOL = 0;
  4129  0022CE  9EC6               	bcf	4038,7,c	;volatile
  4130                           
  4131                           ;system.c: 243: SSPBUF = data;
  4132  0022D0  C06F  FFC9         	movff	SPIWrite@data,4041	;volatile
  4133                           
  4134                           ;system.c: 244: if ( SSPCON1 & 0x80 )
  4135  0022D4  AEC6               	btfss	4038,7,c	;volatile
  4136  0022D6  D002               	goto	l304
  4137                           
  4138                           ;system.c: 245: {
  4139                           ;system.c: 246: INTCONbits.GIE=1;
  4140  0022D8  8EF2               	bsf	intcon,7,c	;volatile
  4141                           
  4142                           ;system.c: 247: return ( -1 );
  4143                           ;	Return value of _SPIWrite is never used
  4144  0022DA  0012               	return	
  4145  0022DC                     l304:
  4146  0022DC  A0C7               	btfss	4039,0,c	;volatile
  4147  0022DE  D7FE               	goto	l304
  4148                           
  4149                           ;system.c: 254: INTCONbits.GIE=1;
  4150  0022E0  8EF2               	bsf	intcon,7,c	;volatile
  4151                           
  4152                           ;system.c: 255: return ( 0 );
  4153                           ;	Return value of _SPIWrite is never used
  4154  0022E2  0012               	return	
  4155  0022E4                     __end_of_SPIWrite:
  4156                           	opt stack 0
  4157                           prodh	equ	0xFF4
  4158                           prodl	equ	0xFF3
  4159                           intcon	equ	0xFF2
  4160                           postinc0	equ	0xFEE
  4161                           postdec0	equ	0xFED
  4162                           fsr0h	equ	0xFEA
  4163                           fsr0l	equ	0xFE9
  4164                           wreg	equ	0xFE8
  4165                           postinc1	equ	0xFE6
  4166                           fsr1h	equ	0xFE2
  4167                           fsr1l	equ	0xFE1
  4168                           indf2	equ	0xFDF
  4169                           postinc2	equ	0xFDE
  4170                           postdec2	equ	0xFDD
  4171                           status	equ	0xFD8
  4172                           
  4173 ;; *************** function _SPIRead *****************
  4174 ;; Defined at:
  4175 ;;		line 259 in file "system.c"
  4176 ;; Parameters:    Size  Location     Type
  4177 ;;  DummyData       1    wreg     unsigned char 
  4178 ;; Auto vars:     Size  Location     Type
  4179 ;;  DummyData       1   14[BANK0 ] unsigned char 
  4180 ;;  TempVar         1   15[BANK0 ] unsigned char 
  4181 ;; Return value:  Size  Location     Type
  4182 ;;                  1    wreg      unsigned char 
  4183 ;; Registers used:
  4184 ;;		wreg, status,2
  4185 ;; Tracked objects:
  4186 ;;		On entry : 0/0
  4187 ;;		On exit  : 0/0
  4188 ;;		Unchanged: 0/0
  4189 ;; Data sizes:     COMRAM   BANK0   BANK1   BANK2   BANK3   BANK4   BANK5   BANK6   BANK7   BANK8   BANK9  BANK10  BANK1
      +1  BANK12  BANK13  BANK14
  4190 ;;      Params:         0       0       0       0       0       0       0       0       0       0       0       0       
      +0       0       0       0
  4191 ;;      Locals:         0       2       0       0       0       0       0       0       0       0       0       0       
      +0       0       0       0
  4192 ;;      Temps:          0       0       0       0       0       0       0       0       0       0       0       0       
      +0       0       0       0
  4193 ;;      Totals:         0       2       0       0       0       0       0       0       0       0       0       0       
      +0       0       0       0
  4194 ;;Total ram usage:        2 bytes
  4195 ;; Hardware stack levels used:    1
  4196 ;; Hardware stack levels required when called:    5
  4197 ;; This function calls:
  4198 ;;		Nothing
  4199 ;; This function is called by:
  4200 ;;		_IMURead
  4201 ;;		_ISMReadConfig
  4202 ;;		_ISMReadData
  4203 ;; This function uses a non-reentrant model
  4204 ;;
  4205                           
  4206                           	psect	text10
  4207  002256                     __ptext10:
  4208                           	opt stack 0
  4209  002256                     _SPIRead:
  4210                           	opt stack 22
  4211                           
  4212                           ;incstack = 0
  4213                           ;SPIRead@DummyData stored from wreg
  4214  002256  CFE8 F06E          	movff	wreg,SPIRead@DummyData
  4215                           
  4216                           ;system.c: 261: unsigned char TempVar;
  4217                           ;system.c: 263: INTCONbits.GIE=0;
  4218  00225A  9EF2               	bcf	intcon,7,c	;volatile
  4219                           
  4220                           ;system.c: 264: TempVar = SSPBUF;
  4221  00225C  CFC9 F06F          	movff	4041,SPIRead@TempVar	;volatile
  4222                           
  4223                           ;system.c: 265: PIR1bits.SSPIF = 0;
  4224  002260  969E               	bcf	3998,3,c	;volatile
  4225                           
  4226                           ;system.c: 266: SSPCON1bits.WCOL = 0;
  4227  002262  9EC6               	bcf	4038,7,c	;volatile
  4228                           
  4229                           ;system.c: 267: SSPBUF = DummyData;
  4230  002264  C06E  FFC9         	movff	SPIRead@DummyData,4041	;volatile
  4231  002268                     l309:
  4232  002268  A0C7               	btfss	4039,0,c	;volatile
  4233  00226A  D7FE               	goto	l309
  4234                           
  4235                           ;system.c: 271: TempVar = SSPBUF;
  4236  00226C  CFC9 F06F          	movff	4041,SPIRead@TempVar	;volatile
  4237                           
  4238                           ;system.c: 273: INTCONbits.GIE=1;
  4239  002270  8EF2               	bsf	intcon,7,c	;volatile
  4240                           
  4241                           ;system.c: 274: return ( TempVar );
  4242  002272  0100               	movlb	0	; () banked
  4243  002274  0100               	movlb	0	; () banked
  4244  002276  516F               	movf	SPIRead@TempVar& (0+255),w,b
  4245                           
  4246                           ; BSR set to: 0
  4247  002278  0012               	return	
  4248  00227A                     __end_of_SPIRead:
  4249                           	opt stack 0
  4250                           prodh	equ	0xFF4
  4251                           prodl	equ	0xFF3
  4252                           intcon	equ	0xFF2
  4253                           postinc0	equ	0xFEE
  4254                           postdec0	equ	0xFED
  4255                           fsr0h	equ	0xFEA
  4256                           fsr0l	equ	0xFE9
  4257                           wreg	equ	0xFE8
  4258                           postinc1	equ	0xFE6
  4259                           fsr1h	equ	0xFE2
  4260                           fsr1l	equ	0xFE1
  4261                           indf2	equ	0xFDF
  4262                           postinc2	equ	0xFDE
  4263                           postdec2	equ	0xFDD
  4264                           status	equ	0xFD8
  4265                           
  4266 ;; *************** function _GetUSART2RxFifo *****************
  4267 ;; Defined at:
  4268 ;;		line 363 in file "system.c"
  4269 ;; Parameters:    Size  Location     Type
  4270 ;;		None
  4271 ;; Auto vars:     Size  Location     Type
  4272 ;;  CharToRead      1   15[BANK0 ] unsigned char 
  4273 ;; Return value:  Size  Location     Type
  4274 ;;                  1    wreg      unsigned char 
  4275 ;; Registers used:
  4276 ;;		wreg, fsr2l, fsr2h, status,2, status,0, prodl, prodh
  4277 ;; Tracked objects:
  4278 ;;		On entry : 0/0
  4279 ;;		On exit  : 0/0
  4280 ;;		Unchanged: 0/0
  4281 ;; Data sizes:     COMRAM   BANK0   BANK1   BANK2   BANK3   BANK4   BANK5   BANK6   BANK7   BANK8   BANK9  BANK10  BANK1
      +1  BANK12  BANK13  BANK14
  4282 ;;      Params:         0       0       0       0       0       0       0       0       0       0       0       0       
      +0       0       0       0
  4283 ;;      Locals:         0       1       0       0       0       0       0       0       0       0       0       0       
      +0       0       0       0
  4284 ;;      Temps:          0       1       0       0       0       0       0       0       0       0       0       0       
      +0       0       0       0
  4285 ;;      Totals:         0       2       0       0       0       0       0       0       0       0       0       0       
      +0       0       0       0
  4286 ;;Total ram usage:        2 bytes
  4287 ;; Hardware stack levels used:    1
  4288 ;; Hardware stack levels required when called:    5
  4289 ;; This function calls:
  4290 ;;		Nothing
  4291 ;; This function is called by:
  4292 ;;		_main
  4293 ;; This function uses a non-reentrant model
  4294 ;;
  4295                           
  4296                           	psect	text11
  4297  001D08                     __ptext11:
  4298                           	opt stack 0
  4299  001D08                     _GetUSART2RxFifo:
  4300                           	opt stack 24
  4301                           
  4302                           ;system.c: 365: char CharToRead;
  4303                           ;system.c: 367: if(!USART2RxFifo.FifoEmpty)
  4304                           
  4305                           ; BSR set to: 0
  4306                           ;incstack = 0
  4307  001D08  0100               	movlb	0	; () banked
  4308  001D0A  0100               	movlb	0	; () banked
  4309  001D0C  67C3               	tstfsz	(_USART2RxFifo+13)& (0+255),b
  4310  001D0E  D03F               	goto	l4110
  4311                           
  4312                           ; BSR set to: 0
  4313                           ;system.c: 368: {
  4314                           ;system.c: 370: INTCONbits.GIE=0;
  4315  001D10  9EF2               	bcf	intcon,7,c	;volatile
  4316                           
  4317                           ; BSR set to: 0
  4318                           ;system.c: 372: CharToRead=USART2RxFifo.USARTMsg[USART2RxFifo.LowIndex];
  4319  001D12  0100               	movlb	0	; () banked
  4320  001D14  0100               	movlb	0	; () banked
  4321  001D16  51C0               	movf	(_USART2RxFifo+10)& (0+255),w,b
  4322  001D18  0D01               	mullw	1
  4323  001D1A  0100               	movlb	0	; () banked
  4324  001D1C  0EB6               	movlw	low _USART2RxFifo
  4325  001D1E  24F3               	addwf	prodl,w,c
  4326  001D20  6ED9               	movwf	fsr2l,c
  4327  001D22  0100               	movlb	0	; () banked
  4328  001D24  0E00               	movlw	high _USART2RxFifo
  4329  001D26  20F4               	addwfc	prodh,w,c
  4330  001D28  6EDA               	movwf	fsr2h,c
  4331  001D2A  50DF               	movf	indf2,w,c
  4332  001D2C  0100               	movlb	0	; () banked
  4333  001D2E  0100               	movlb	0	; () banked
  4334  001D30  6F6F               	movwf	GetUSART2RxFifo@CharToRead& (0+255),b
  4335                           
  4336                           ; BSR set to: 0
  4337                           ;system.c: 373: USART2RxFifo.Fifofull=0;
  4338  001D32  0100               	movlb	0	; () banked
  4339  001D34  6F6E               	movwf	??_GetUSART2RxFifo& (0+255),b
  4340  001D36  0E00               	movlw	0
  4341  001D38  0100               	movlb	0	; () banked
  4342  001D3A  0100               	movlb	0	; () banked
  4343  001D3C  6FC2               	movwf	(_USART2RxFifo+12)& (0+255),b
  4344  001D3E  0100               	movlb	0	; () banked
  4345  001D40  516E               	movf	??_GetUSART2RxFifo& (0+255),w,b
  4346                           
  4347                           ; BSR set to: 0
  4348                           ;system.c: 374: USART2RxFifo.LowIndex++;
  4349  001D42  0100               	movlb	0	; () banked
  4350  001D44  0100               	movlb	0	; () banked
  4351  001D46  2BC0               	incf	(_USART2RxFifo+10)& (0+255),f,b
  4352                           
  4353                           ; BSR set to: 0
  4354                           ;system.c: 376: if(USART2RxFifo.LowIndex==(10))
  4355  001D48  0100               	movlb	0	; () banked
  4356  001D4A  0100               	movlb	0	; () banked
  4357  001D4C  51C0               	movf	(_USART2RxFifo+10)& (0+255),w,b
  4358  001D4E  0A0A               	xorlw	10
  4359  001D50  A4D8               	btfss	status,2,c
  4360  001D52  D008               	goto	l4098
  4361                           
  4362                           ; BSR set to: 0
  4363                           ;system.c: 377: USART2RxFifo.LowIndex=0;
  4364  001D54  0100               	movlb	0	; () banked
  4365  001D56  6F6E               	movwf	??_GetUSART2RxFifo& (0+255),b
  4366  001D58  0E00               	movlw	0
  4367  001D5A  0100               	movlb	0	; () banked
  4368  001D5C  0100               	movlb	0	; () banked
  4369  001D5E  6FC0               	movwf	(_USART2RxFifo+10)& (0+255),b
  4370  001D60  0100               	movlb	0	; () banked
  4371  001D62  516E               	movf	??_GetUSART2RxFifo& (0+255),w,b
  4372  001D64                     l4098:
  4373                           
  4374                           ; BSR set to: 0
  4375                           ;system.c: 379: if(USART2RxFifo.HighIndex==USART2RxFifo.LowIndex)
  4376  001D64  0100               	movlb	0	; () banked
  4377  001D66  0100               	movlb	0	; () banked
  4378  001D68  51C0               	movf	(_USART2RxFifo+10)& (0+255),w,b
  4379  001D6A  0100               	movlb	0	; () banked
  4380  001D6C  EE20  F0C1         	lfsr	2,_USART2RxFifo+11
  4381  001D70  62DF               	cpfseq	indf2,c
  4382  001D72  D008               	goto	l4102
  4383                           
  4384                           ; BSR set to: 0
  4385                           ;system.c: 380: USART2RxFifo.FifoEmpty=1;
  4386  001D74  0100               	movlb	0	; () banked
  4387  001D76  6F6E               	movwf	??_GetUSART2RxFifo& (0+255),b
  4388  001D78  0E01               	movlw	1
  4389  001D7A  0100               	movlb	0	; () banked
  4390  001D7C  0100               	movlb	0	; () banked
  4391  001D7E  6FC3               	movwf	(_USART2RxFifo+13)& (0+255),b
  4392  001D80  0100               	movlb	0	; () banked
  4393  001D82  516E               	movf	??_GetUSART2RxFifo& (0+255),w,b
  4394  001D84                     l4102:
  4395                           
  4396                           ; BSR set to: 0
  4397                           ;system.c: 382: INTCONbits.GIE=1;
  4398  001D84  8EF2               	bsf	intcon,7,c	;volatile
  4399                           
  4400                           ; BSR set to: 0
  4401                           ;system.c: 383: return CharToRead;
  4402  001D86  0100               	movlb	0	; () banked
  4403  001D88  0100               	movlb	0	; () banked
  4404  001D8A  516F               	movf	GetUSART2RxFifo@CharToRead& (0+255),w,b
  4405  001D8C  0012               	return	
  4406  001D8E                     l4110:
  4407                           
  4408                           ; BSR set to: 0
  4409                           ;system.c: 385: else
  4410                           ;system.c: 386: {
  4411                           ;system.c: 387: return 0 ;
  4412  001D8E  0E00               	movlw	0
  4413  001D90  0012               	return	
  4414  001D92                     __end_of_GetUSART2RxFifo:
  4415                           	opt stack 0
  4416                           prodh	equ	0xFF4
  4417                           prodl	equ	0xFF3
  4418                           intcon	equ	0xFF2
  4419                           postinc0	equ	0xFEE
  4420                           postdec0	equ	0xFED
  4421                           fsr0h	equ	0xFEA
  4422                           fsr0l	equ	0xFE9
  4423                           wreg	equ	0xFE8
  4424                           postinc1	equ	0xFE6
  4425                           fsr1h	equ	0xFE2
  4426                           fsr1l	equ	0xFE1
  4427                           indf2	equ	0xFDF
  4428                           postinc2	equ	0xFDE
  4429                           postdec2	equ	0xFDD
  4430                           fsr2h	equ	0xFDA
  4431                           fsr2l	equ	0xFD9
  4432                           status	equ	0xFD8
  4433                           
  4434 ;; *************** function _GetUSART1RxFifo *****************
  4435 ;; Defined at:
  4436 ;;		line 311 in file "system.c"
  4437 ;; Parameters:    Size  Location     Type
  4438 ;;		None
  4439 ;; Auto vars:     Size  Location     Type
  4440 ;;  CharToRead      1   15[BANK0 ] unsigned char 
  4441 ;; Return value:  Size  Location     Type
  4442 ;;                  1    wreg      unsigned char 
  4443 ;; Registers used:
  4444 ;;		wreg, fsr2l, fsr2h, status,2, status,0, prodl, prodh
  4445 ;; Tracked objects:
  4446 ;;		On entry : 0/0
  4447 ;;		On exit  : 0/0
  4448 ;;		Unchanged: 0/0
  4449 ;; Data sizes:     COMRAM   BANK0   BANK1   BANK2   BANK3   BANK4   BANK5   BANK6   BANK7   BANK8   BANK9  BANK10  BANK1
      +1  BANK12  BANK13  BANK14
  4450 ;;      Params:         0       0       0       0       0       0       0       0       0       0       0       0       
      +0       0       0       0
  4451 ;;      Locals:         0       1       0       0       0       0       0       0       0       0       0       0       
      +0       0       0       0
  4452 ;;      Temps:          0       1       0       0       0       0       0       0       0       0       0       0       
      +0       0       0       0
  4453 ;;      Totals:         0       2       0       0       0       0       0       0       0       0       0       0       
      +0       0       0       0
  4454 ;;Total ram usage:        2 bytes
  4455 ;; Hardware stack levels used:    1
  4456 ;; Hardware stack levels required when called:    5
  4457 ;; This function calls:
  4458 ;;		Nothing
  4459 ;; This function is called by:
  4460 ;;		_main
  4461 ;; This function uses a non-reentrant model
  4462 ;;
  4463                           
  4464                           	psect	text12
  4465  001D92                     __ptext12:
  4466                           	opt stack 0
  4467  001D92                     _GetUSART1RxFifo:
  4468                           	opt stack 24
  4469                           
  4470                           ;system.c: 313: char CharToRead;
  4471                           ;system.c: 316: if(!USART1RxFifo.FifoEmpty)
  4472                           
  4473                           ; BSR set to: 0
  4474                           ;incstack = 0
  4475  001D92  0100               	movlb	0	; () banked
  4476  001D94  0100               	movlb	0	; () banked
  4477  001D96  67B5               	tstfsz	(_USART1RxFifo+13)& (0+255),b
  4478  001D98  D03F               	goto	l4140
  4479                           
  4480                           ; BSR set to: 0
  4481                           ;system.c: 317: {
  4482                           ;system.c: 319: INTCONbits.GIE=0;
  4483  001D9A  9EF2               	bcf	intcon,7,c	;volatile
  4484                           
  4485                           ; BSR set to: 0
  4486                           ;system.c: 321: CharToRead=USART1RxFifo.USARTMsg[USART1RxFifo.LowIndex];
  4487  001D9C  0100               	movlb	0	; () banked
  4488  001D9E  0100               	movlb	0	; () banked
  4489  001DA0  51B2               	movf	(_USART1RxFifo+10)& (0+255),w,b
  4490  001DA2  0D01               	mullw	1
  4491  001DA4  0100               	movlb	0	; () banked
  4492  001DA6  0EA8               	movlw	low _USART1RxFifo
  4493  001DA8  24F3               	addwf	prodl,w,c
  4494  001DAA  6ED9               	movwf	fsr2l,c
  4495  001DAC  0100               	movlb	0	; () banked
  4496  001DAE  0E00               	movlw	high _USART1RxFifo
  4497  001DB0  20F4               	addwfc	prodh,w,c
  4498  001DB2  6EDA               	movwf	fsr2h,c
  4499  001DB4  50DF               	movf	indf2,w,c
  4500  001DB6  0100               	movlb	0	; () banked
  4501  001DB8  0100               	movlb	0	; () banked
  4502  001DBA  6F6F               	movwf	GetUSART1RxFifo@CharToRead& (0+255),b
  4503                           
  4504                           ; BSR set to: 0
  4505                           ;system.c: 322: USART1RxFifo.Fifofull=0;
  4506  001DBC  0100               	movlb	0	; () banked
  4507  001DBE  6F6E               	movwf	??_GetUSART1RxFifo& (0+255),b
  4508  001DC0  0E00               	movlw	0
  4509  001DC2  0100               	movlb	0	; () banked
  4510  001DC4  0100               	movlb	0	; () banked
  4511  001DC6  6FB4               	movwf	(_USART1RxFifo+12)& (0+255),b
  4512  001DC8  0100               	movlb	0	; () banked
  4513  001DCA  516E               	movf	??_GetUSART1RxFifo& (0+255),w,b
  4514                           
  4515                           ; BSR set to: 0
  4516                           ;system.c: 323: USART1RxFifo.LowIndex++;
  4517  001DCC  0100               	movlb	0	; () banked
  4518  001DCE  0100               	movlb	0	; () banked
  4519  001DD0  2BB2               	incf	(_USART1RxFifo+10)& (0+255),f,b
  4520                           
  4521                           ; BSR set to: 0
  4522                           ;system.c: 325: if(USART1RxFifo.LowIndex==(10))
  4523  001DD2  0100               	movlb	0	; () banked
  4524  001DD4  0100               	movlb	0	; () banked
  4525  001DD6  51B2               	movf	(_USART1RxFifo+10)& (0+255),w,b
  4526  001DD8  0A0A               	xorlw	10
  4527  001DDA  A4D8               	btfss	status,2,c
  4528  001DDC  D008               	goto	l4128
  4529                           
  4530                           ; BSR set to: 0
  4531                           ;system.c: 326: USART1RxFifo.LowIndex=0;
  4532  001DDE  0100               	movlb	0	; () banked
  4533  001DE0  6F6E               	movwf	??_GetUSART1RxFifo& (0+255),b
  4534  001DE2  0E00               	movlw	0
  4535  001DE4  0100               	movlb	0	; () banked
  4536  001DE6  0100               	movlb	0	; () banked
  4537  001DE8  6FB2               	movwf	(_USART1RxFifo+10)& (0+255),b
  4538  001DEA  0100               	movlb	0	; () banked
  4539  001DEC  516E               	movf	??_GetUSART1RxFifo& (0+255),w,b
  4540  001DEE                     l4128:
  4541                           
  4542                           ; BSR set to: 0
  4543                           ;system.c: 328: if(USART1RxFifo.HighIndex==USART1RxFifo.LowIndex)
  4544  001DEE  0100               	movlb	0	; () banked
  4545  001DF0  0100               	movlb	0	; () banked
  4546  001DF2  51B2               	movf	(_USART1RxFifo+10)& (0+255),w,b
  4547  001DF4  0100               	movlb	0	; () banked
  4548  001DF6  EE20  F0B3         	lfsr	2,_USART1RxFifo+11
  4549  001DFA  62DF               	cpfseq	indf2,c
  4550  001DFC  D008               	goto	l4132
  4551                           
  4552                           ; BSR set to: 0
  4553                           ;system.c: 329: USART1RxFifo.FifoEmpty=1;
  4554  001DFE  0100               	movlb	0	; () banked
  4555  001E00  6F6E               	movwf	??_GetUSART1RxFifo& (0+255),b
  4556  001E02  0E01               	movlw	1
  4557  001E04  0100               	movlb	0	; () banked
  4558  001E06  0100               	movlb	0	; () banked
  4559  001E08  6FB5               	movwf	(_USART1RxFifo+13)& (0+255),b
  4560  001E0A  0100               	movlb	0	; () banked
  4561  001E0C  516E               	movf	??_GetUSART1RxFifo& (0+255),w,b
  4562  001E0E                     l4132:
  4563                           
  4564                           ; BSR set to: 0
  4565                           ;system.c: 331: INTCONbits.GIE=1;
  4566  001E0E  8EF2               	bsf	intcon,7,c	;volatile
  4567                           
  4568                           ; BSR set to: 0
  4569                           ;system.c: 332: return CharToRead;
  4570  001E10  0100               	movlb	0	; () banked
  4571  001E12  0100               	movlb	0	; () banked
  4572  001E14  516F               	movf	GetUSART1RxFifo@CharToRead& (0+255),w,b
  4573  001E16  0012               	return	
  4574  001E18                     l4140:
  4575                           
  4576                           ; BSR set to: 0
  4577                           ;system.c: 334: else
  4578                           ;system.c: 335: {
  4579                           ;system.c: 336: return 0 ;
  4580  001E18  0E00               	movlw	0
  4581  001E1A  0012               	return	
  4582  001E1C                     __end_of_GetUSART1RxFifo:
  4583                           	opt stack 0
  4584                           prodh	equ	0xFF4
  4585                           prodl	equ	0xFF3
  4586                           intcon	equ	0xFF2
  4587                           postinc0	equ	0xFEE
  4588                           postdec0	equ	0xFED
  4589                           fsr0h	equ	0xFEA
  4590                           fsr0l	equ	0xFE9
  4591                           wreg	equ	0xFE8
  4592                           postinc1	equ	0xFE6
  4593                           fsr1h	equ	0xFE2
  4594                           fsr1l	equ	0xFE1
  4595                           indf2	equ	0xFDF
  4596                           postinc2	equ	0xFDE
  4597                           postdec2	equ	0xFDD
  4598                           fsr2h	equ	0xFDA
  4599                           fsr2l	equ	0xFD9
  4600                           status	equ	0xFD8
  4601                           
  4602 ;; *************** function _GetCANTxFifo *****************
  4603 ;; Defined at:
  4604 ;;		line 65 in file "Can_HL.c"
  4605 ;; Parameters:    Size  Location     Type
  4606 ;;		None
  4607 ;; Auto vars:     Size  Location     Type
  4608 ;;  LocalCANTXMs   14   30[BANK0 ] struct CANTxMsg
  4609 ;; Return value:  Size  Location     Type
  4610 ;;                  14   14[BANK0 ] struct CANTxMsg
  4611 ;; Registers used:
  4612 ;;		wreg, fsr0l, fsr0h, fsr1l, fsr1h, fsr2l, fsr2h, status,2, status,0, prodl, prodh
  4613 ;; Tracked objects:
  4614 ;;		On entry : 0/0
  4615 ;;		On exit  : 0/0
  4616 ;;		Unchanged: 0/0
  4617 ;; Data sizes:     COMRAM   BANK0   BANK1   BANK2   BANK3   BANK4   BANK5   BANK6   BANK7   BANK8   BANK9  BANK10  BANK1
      +1  BANK12  BANK13  BANK14
  4618 ;;      Params:         0      14       0       0       0       0       0       0       0       0       0       0       
      +0       0       0       0
  4619 ;;      Locals:         0      14       0       0       0       0       0       0       0       0       0       0       
      +0       0       0       0
  4620 ;;      Temps:          0       2       0       0       0       0       0       0       0       0       0       0       
      +0       0       0       0
  4621 ;;      Totals:         0      30       0       0       0       0       0       0       0       0       0       0       
      +0       0       0       0
  4622 ;;Total ram usage:       30 bytes
  4623 ;; Hardware stack levels used:    1
  4624 ;; Hardware stack levels required when called:    5
  4625 ;; This function calls:
  4626 ;;		Nothing
  4627 ;; This function is called by:
  4628 ;;		_main
  4629 ;; This function uses a non-reentrant model
  4630 ;;
  4631                           
  4632                           	psect	text13
  4633  001876                     __ptext13:
  4634                           	opt stack 0
  4635  001876                     _GetCANTxFifo:
  4636                           	opt stack 24
  4637                           
  4638                           ;Can_HL.c: 67: struct CANTxMsg LocalCANTXMsg;
  4639                           ;Can_HL.c: 70: if(!CANTxFifo.FifoEmpty)
  4640                           
  4641                           ; BSR set to: 0
  4642                           ;incstack = 0
  4643  001876  0101               	movlb	1	; () banked
  4644  001878  0101               	movlb	1	; () banked
  4645  00187A  678F               	tstfsz	(_CANTxFifo+143)& (0+255),b
  4646  00187C  D051               	goto	l4170
  4647                           
  4648                           ; BSR set to: 1
  4649                           ;Can_HL.c: 71: {
  4650                           ;Can_HL.c: 72: INTCONbits.GIE=0;
  4651  00187E  9EF2               	bcf	intcon,7,c	;volatile
  4652                           
  4653                           ; BSR set to: 1
  4654                           ;Can_HL.c: 74: LocalCANTXMsg=CANTxFifo.CANMsg[CANTxFifo.LowIndex];
  4655  001880  0101               	movlb	1	; () banked
  4656  001882  0101               	movlb	1	; () banked
  4657  001884  518C               	movf	(_CANTxFifo+140)& (0+255),w,b
  4658  001886  0D0E               	mullw	14
  4659  001888  0E00               	movlw	low _CANTxFifo
  4660  00188A  0100               	movlb	0	; () banked
  4661  00188C  6F7C               	movwf	??_GetCANTxFifo& (0+255),b
  4662  00188E  0E01               	movlw	high _CANTxFifo
  4663  001890  6F7D               	movwf	(??_GetCANTxFifo+1)& (0+255),b
  4664  001892  50F3               	movf	prodl,w,c
  4665  001894  0100               	movlb	0	; () banked
  4666  001896  277C               	addwf	??_GetCANTxFifo& (0+255),f,b
  4667  001898  50F4               	movf	prodh,w,c
  4668  00189A  0100               	movlb	0	; () banked
  4669  00189C  237D               	addwfc	(??_GetCANTxFifo+1)& (0+255),f,b
  4670  00189E  C07C  FFD9         	movff	??_GetCANTxFifo,fsr2l
  4671  0018A2  C07D  FFDA         	movff	??_GetCANTxFifo+1,fsr2h
  4672  0018A6  EE10  F07E         	lfsr	1,GetCANTxFifo@LocalCANTXMsg
  4673  0018AA  0E0E               	movlw	14
  4674  0018AC                     u3071:
  4675  0018AC  CFDE FFE6          	movff	postinc2,postinc1
  4676  0018B0  2EE8               	decfsz	wreg,f,c
  4677  0018B2  D7FC               	goto	u3071
  4678                           
  4679                           ; BSR set to: 0
  4680                           ;Can_HL.c: 75: CANTxFifo.Fifofull=0;
  4681  0018B4  0100               	movlb	0	; () banked
  4682  0018B6  6F7C               	movwf	??_GetCANTxFifo& (0+255),b
  4683  0018B8  0E00               	movlw	0
  4684  0018BA  0101               	movlb	1	; () banked
  4685  0018BC  0101               	movlb	1	; () banked
  4686  0018BE  6F8E               	movwf	(_CANTxFifo+142)& (0+255),b
  4687  0018C0  0100               	movlb	0	; () banked
  4688  0018C2  517C               	movf	??_GetCANTxFifo& (0+255),w,b
  4689                           
  4690                           ; BSR set to: 0
  4691                           ;Can_HL.c: 76: CANTxFifo.LowIndex++;
  4692  0018C4  0101               	movlb	1	; () banked
  4693  0018C6  0101               	movlb	1	; () banked
  4694  0018C8  2B8C               	incf	(_CANTxFifo+140)& (0+255),f,b
  4695                           
  4696                           ; BSR set to: 1
  4697                           ;Can_HL.c: 78: if(CANTxFifo.LowIndex==(10))
  4698  0018CA  0101               	movlb	1	; () banked
  4699  0018CC  0101               	movlb	1	; () banked
  4700  0018CE  518C               	movf	(_CANTxFifo+140)& (0+255),w,b
  4701  0018D0  0A0A               	xorlw	10
  4702  0018D2  A4D8               	btfss	status,2,c
  4703  0018D4  D008               	goto	l4158
  4704                           
  4705                           ; BSR set to: 1
  4706                           ;Can_HL.c: 79: CANTxFifo.LowIndex=0;
  4707  0018D6  0100               	movlb	0	; () banked
  4708  0018D8  6F7C               	movwf	??_GetCANTxFifo& (0+255),b
  4709  0018DA  0E00               	movlw	0
  4710  0018DC  0101               	movlb	1	; () banked
  4711  0018DE  0101               	movlb	1	; () banked
  4712  0018E0  6F8C               	movwf	(_CANTxFifo+140)& (0+255),b
  4713  0018E2  0100               	movlb	0	; () banked
  4714  0018E4  517C               	movf	??_GetCANTxFifo& (0+255),w,b
  4715  0018E6                     l4158:
  4716                           
  4717                           ;Can_HL.c: 81: if(CANTxFifo.HighIndex==CANTxFifo.LowIndex)
  4718  0018E6  0101               	movlb	1	; () banked
  4719  0018E8  0101               	movlb	1	; () banked
  4720  0018EA  518C               	movf	(_CANTxFifo+140)& (0+255),w,b
  4721  0018EC  0101               	movlb	1	; () banked
  4722  0018EE  EE21  F08D         	lfsr	2,_CANTxFifo+141
  4723  0018F2  62DF               	cpfseq	indf2,c
  4724  0018F4  D008               	goto	l4162
  4725                           
  4726                           ; BSR set to: 1
  4727                           ;Can_HL.c: 82: CANTxFifo.FifoEmpty=1;
  4728  0018F6  0100               	movlb	0	; () banked
  4729  0018F8  6F7C               	movwf	??_GetCANTxFifo& (0+255),b
  4730  0018FA  0E01               	movlw	1
  4731  0018FC  0101               	movlb	1	; () banked
  4732  0018FE  0101               	movlb	1	; () banked
  4733  001900  6F8F               	movwf	(_CANTxFifo+143)& (0+255),b
  4734  001902  0100               	movlb	0	; () banked
  4735  001904  517C               	movf	??_GetCANTxFifo& (0+255),w,b
  4736  001906                     l4162:
  4737                           
  4738                           ;Can_HL.c: 84: INTCONbits.GIE=1;
  4739  001906  8EF2               	bsf	intcon,7,c	;volatile
  4740                           
  4741                           ;Can_HL.c: 85: return LocalCANTXMsg;
  4742  001908  EE20  F08B         	lfsr	2,GetCANTxFifo@LocalCANTXMsg+13
  4743  00190C  EE00  F07B         	lfsr	0,?_GetCANTxFifo+13
  4744  001910  0E0E               	movlw	14
  4745  001912                     u3101:
  4746  001912  CFDD FFED          	movff	postdec2,postdec0
  4747  001916  2EE8               	decfsz	wreg,f,c
  4748  001918  D7FC               	goto	u3101
  4749  00191A  2AE9               	incf	fsr0l,f,c
  4750  00191C  22EA               	addwfc	fsr0h,f,c
  4751  00191E  0012               	return	
  4752  001920                     l4170:
  4753                           
  4754                           ;Can_HL.c: 87: else
  4755                           ;Can_HL.c: 88: {
  4756                           ;Can_HL.c: 89: LocalCANTXMsg.id=0;
  4757  001920  0E00               	movlw	0
  4758  001922  0100               	movlb	0	; () banked
  4759  001924  0100               	movlb	0	; () banked
  4760  001926  6F7E               	movwf	GetCANTxFifo@LocalCANTXMsg& (0+255),b
  4761  001928  0E00               	movlw	0
  4762  00192A  0100               	movlb	0	; () banked
  4763  00192C  6F7F               	movwf	(GetCANTxFifo@LocalCANTXMsg+1)& (0+255),b
  4764  00192E  0E00               	movlw	0
  4765  001930  0100               	movlb	0	; () banked
  4766  001932  6F80               	movwf	(GetCANTxFifo@LocalCANTXMsg+2)& (0+255),b
  4767  001934  0E00               	movlw	0
  4768  001936  0100               	movlb	0	; () banked
  4769  001938  6F81               	movwf	(GetCANTxFifo@LocalCANTXMsg+3)& (0+255),b
  4770                           
  4771                           ; BSR set to: 0
  4772                           ;Can_HL.c: 90: return LocalCANTXMsg;
  4773  00193A  EE20  F08B         	lfsr	2,GetCANTxFifo@LocalCANTXMsg+13
  4774  00193E  EE00  F07B         	lfsr	0,?_GetCANTxFifo+13
  4775  001942  0E0E               	movlw	14
  4776  001944                     u3111:
  4777  001944  CFDD FFED          	movff	postdec2,postdec0
  4778  001948  2EE8               	decfsz	wreg,f,c
  4779  00194A  D7FC               	goto	u3111
  4780  00194C  2AE9               	incf	fsr0l,f,c
  4781  00194E  22EA               	addwfc	fsr0h,f,c
  4782  001950  0012               	return	
  4783  001952                     __end_of_GetCANTxFifo:
  4784                           	opt stack 0
  4785                           prodh	equ	0xFF4
  4786                           prodl	equ	0xFF3
  4787                           intcon	equ	0xFF2
  4788                           postinc0	equ	0xFEE
  4789                           postdec0	equ	0xFED
  4790                           fsr0h	equ	0xFEA
  4791                           fsr0l	equ	0xFE9
  4792                           wreg	equ	0xFE8
  4793                           postinc1	equ	0xFE6
  4794                           fsr1h	equ	0xFE2
  4795                           fsr1l	equ	0xFE1
  4796                           indf2	equ	0xFDF
  4797                           postinc2	equ	0xFDE
  4798                           postdec2	equ	0xFDD
  4799                           fsr2h	equ	0xFDA
  4800                           fsr2l	equ	0xFD9
  4801                           status	equ	0xFD8
  4802                           
  4803 ;; *************** function _GetCANRxFifo *****************
  4804 ;; Defined at:
  4805 ;;		line 113 in file "Can_HL.c"
  4806 ;; Parameters:    Size  Location     Type
  4807 ;;		None
  4808 ;; Auto vars:     Size  Location     Type
  4809 ;;  LocalCANRXMs   14   30[BANK0 ] struct CANRxMsg
  4810 ;; Return value:  Size  Location     Type
  4811 ;;                  14   14[BANK0 ] struct CANRxMsg
  4812 ;; Registers used:
  4813 ;;		wreg, fsr0l, fsr0h, fsr1l, fsr1h, fsr2l, fsr2h, status,2, status,0, prodl, prodh
  4814 ;; Tracked objects:
  4815 ;;		On entry : 0/0
  4816 ;;		On exit  : 0/0
  4817 ;;		Unchanged: 0/0
  4818 ;; Data sizes:     COMRAM   BANK0   BANK1   BANK2   BANK3   BANK4   BANK5   BANK6   BANK7   BANK8   BANK9  BANK10  BANK1
      +1  BANK12  BANK13  BANK14
  4819 ;;      Params:         0      14       0       0       0       0       0       0       0       0       0       0       
      +0       0       0       0
  4820 ;;      Locals:         0      14       0       0       0       0       0       0       0       0       0       0       
      +0       0       0       0
  4821 ;;      Temps:          0       2       0       0       0       0       0       0       0       0       0       0       
      +0       0       0       0
  4822 ;;      Totals:         0      30       0       0       0       0       0       0       0       0       0       0       
      +0       0       0       0
  4823 ;;Total ram usage:       30 bytes
  4824 ;; Hardware stack levels used:    1
  4825 ;; Hardware stack levels required when called:    5
  4826 ;; This function calls:
  4827 ;;		Nothing
  4828 ;; This function is called by:
  4829 ;;		_main
  4830 ;; This function uses a non-reentrant model
  4831 ;;
  4832                           
  4833                           	psect	text14
  4834  001952                     __ptext14:
  4835                           	opt stack 0
  4836  001952                     _GetCANRxFifo:
  4837                           	opt stack 24
  4838                           
  4839                           ;Can_HL.c: 115: struct CANRxMsg LocalCANRXMsg;
  4840                           ;Can_HL.c: 118: if(!CANRxFifo.FifoEmpty)
  4841                           
  4842                           ;incstack = 0
  4843  001952  0102               	movlb	2	; () banked
  4844  001954  0102               	movlb	2	; () banked
  4845  001956  678F               	tstfsz	(_CANRxFifo+143)& (0+255),b
  4846  001958  D051               	goto	l4078
  4847                           
  4848                           ; BSR set to: 2
  4849                           ;Can_HL.c: 119: {
  4850                           ;Can_HL.c: 120: INTCONbits.GIE=0;
  4851  00195A  9EF2               	bcf	intcon,7,c	;volatile
  4852                           
  4853                           ; BSR set to: 2
  4854                           ;Can_HL.c: 122: LocalCANRXMsg=CANRxFifo.CANMsg[CANRxFifo.LowIndex];
  4855  00195C  0102               	movlb	2	; () banked
  4856  00195E  0102               	movlb	2	; () banked
  4857  001960  518C               	movf	(_CANRxFifo+140)& (0+255),w,b
  4858  001962  0D0E               	mullw	14
  4859  001964  0E00               	movlw	low _CANRxFifo
  4860  001966  0100               	movlb	0	; () banked
  4861  001968  6F7C               	movwf	??_GetCANRxFifo& (0+255),b
  4862  00196A  0E02               	movlw	high _CANRxFifo
  4863  00196C  6F7D               	movwf	(??_GetCANRxFifo+1)& (0+255),b
  4864  00196E  50F3               	movf	prodl,w,c
  4865  001970  0100               	movlb	0	; () banked
  4866  001972  277C               	addwf	??_GetCANRxFifo& (0+255),f,b
  4867  001974  50F4               	movf	prodh,w,c
  4868  001976  0100               	movlb	0	; () banked
  4869  001978  237D               	addwfc	(??_GetCANRxFifo+1)& (0+255),f,b
  4870  00197A  C07C  FFD9         	movff	??_GetCANRxFifo,fsr2l
  4871  00197E  C07D  FFDA         	movff	??_GetCANRxFifo+1,fsr2h
  4872  001982  EE10  F07E         	lfsr	1,GetCANRxFifo@LocalCANRXMsg
  4873  001986  0E0E               	movlw	14
  4874  001988                     u2951:
  4875  001988  CFDE FFE6          	movff	postinc2,postinc1
  4876  00198C  2EE8               	decfsz	wreg,f,c
  4877  00198E  D7FC               	goto	u2951
  4878                           
  4879                           ; BSR set to: 0
  4880                           ;Can_HL.c: 123: CANRxFifo.Fifofull=0;
  4881  001990  0100               	movlb	0	; () banked
  4882  001992  6F7C               	movwf	??_GetCANRxFifo& (0+255),b
  4883  001994  0E00               	movlw	0
  4884  001996  0102               	movlb	2	; () banked
  4885  001998  0102               	movlb	2	; () banked
  4886  00199A  6F8E               	movwf	(_CANRxFifo+142)& (0+255),b
  4887  00199C  0100               	movlb	0	; () banked
  4888  00199E  517C               	movf	??_GetCANRxFifo& (0+255),w,b
  4889                           
  4890                           ; BSR set to: 0
  4891                           ;Can_HL.c: 124: CANRxFifo.LowIndex++;
  4892  0019A0  0102               	movlb	2	; () banked
  4893  0019A2  0102               	movlb	2	; () banked
  4894  0019A4  2B8C               	incf	(_CANRxFifo+140)& (0+255),f,b
  4895                           
  4896                           ; BSR set to: 2
  4897                           ;Can_HL.c: 126: if(CANRxFifo.LowIndex==(10))
  4898  0019A6  0102               	movlb	2	; () banked
  4899  0019A8  0102               	movlb	2	; () banked
  4900  0019AA  518C               	movf	(_CANRxFifo+140)& (0+255),w,b
  4901  0019AC  0A0A               	xorlw	10
  4902  0019AE  A4D8               	btfss	status,2,c
  4903  0019B0  D008               	goto	l4066
  4904                           
  4905                           ; BSR set to: 2
  4906                           ;Can_HL.c: 127: CANRxFifo.LowIndex=0;
  4907  0019B2  0100               	movlb	0	; () banked
  4908  0019B4  6F7C               	movwf	??_GetCANRxFifo& (0+255),b
  4909  0019B6  0E00               	movlw	0
  4910  0019B8  0102               	movlb	2	; () banked
  4911  0019BA  0102               	movlb	2	; () banked
  4912  0019BC  6F8C               	movwf	(_CANRxFifo+140)& (0+255),b
  4913  0019BE  0100               	movlb	0	; () banked
  4914  0019C0  517C               	movf	??_GetCANRxFifo& (0+255),w,b
  4915  0019C2                     l4066:
  4916                           
  4917                           ;Can_HL.c: 129: if(CANRxFifo.HighIndex==CANRxFifo.LowIndex)
  4918  0019C2  0102               	movlb	2	; () banked
  4919  0019C4  0102               	movlb	2	; () banked
  4920  0019C6  518C               	movf	(_CANRxFifo+140)& (0+255),w,b
  4921  0019C8  0102               	movlb	2	; () banked
  4922  0019CA  EE22  F08D         	lfsr	2,_CANRxFifo+141
  4923  0019CE  62DF               	cpfseq	indf2,c
  4924  0019D0  D008               	goto	l4070
  4925                           
  4926                           ; BSR set to: 2
  4927                           ;Can_HL.c: 130: CANRxFifo.FifoEmpty=1;
  4928  0019D2  0100               	movlb	0	; () banked
  4929  0019D4  6F7C               	movwf	??_GetCANRxFifo& (0+255),b
  4930  0019D6  0E01               	movlw	1
  4931  0019D8  0102               	movlb	2	; () banked
  4932  0019DA  0102               	movlb	2	; () banked
  4933  0019DC  6F8F               	movwf	(_CANRxFifo+143)& (0+255),b
  4934  0019DE  0100               	movlb	0	; () banked
  4935  0019E0  517C               	movf	??_GetCANRxFifo& (0+255),w,b
  4936  0019E2                     l4070:
  4937                           
  4938                           ;Can_HL.c: 132: INTCONbits.GIE=1;
  4939  0019E2  8EF2               	bsf	intcon,7,c	;volatile
  4940                           
  4941                           ;Can_HL.c: 133: return LocalCANRXMsg;
  4942  0019E4  EE20  F08B         	lfsr	2,GetCANRxFifo@LocalCANRXMsg+13
  4943  0019E8  EE00  F07B         	lfsr	0,?_GetCANRxFifo+13
  4944  0019EC  0E0E               	movlw	14
  4945  0019EE                     u2981:
  4946  0019EE  CFDD FFED          	movff	postdec2,postdec0
  4947  0019F2  2EE8               	decfsz	wreg,f,c
  4948  0019F4  D7FC               	goto	u2981
  4949  0019F6  2AE9               	incf	fsr0l,f,c
  4950  0019F8  22EA               	addwfc	fsr0h,f,c
  4951  0019FA  0012               	return	
  4952  0019FC                     l4078:
  4953                           
  4954                           ;Can_HL.c: 135: else
  4955                           ;Can_HL.c: 136: {
  4956                           ;Can_HL.c: 137: LocalCANRXMsg.id=0;
  4957  0019FC  0E00               	movlw	0
  4958  0019FE  0100               	movlb	0	; () banked
  4959  001A00  0100               	movlb	0	; () banked
  4960  001A02  6F7E               	movwf	GetCANRxFifo@LocalCANRXMsg& (0+255),b
  4961  001A04  0E00               	movlw	0
  4962  001A06  0100               	movlb	0	; () banked
  4963  001A08  6F7F               	movwf	(GetCANRxFifo@LocalCANRXMsg+1)& (0+255),b
  4964  001A0A  0E00               	movlw	0
  4965  001A0C  0100               	movlb	0	; () banked
  4966  001A0E  6F80               	movwf	(GetCANRxFifo@LocalCANRXMsg+2)& (0+255),b
  4967  001A10  0E00               	movlw	0
  4968  001A12  0100               	movlb	0	; () banked
  4969  001A14  6F81               	movwf	(GetCANRxFifo@LocalCANRXMsg+3)& (0+255),b
  4970                           
  4971                           ; BSR set to: 0
  4972                           ;Can_HL.c: 138: return LocalCANRXMsg;
  4973  001A16  EE20  F08B         	lfsr	2,GetCANRxFifo@LocalCANRXMsg+13
  4974  001A1A  EE00  F07B         	lfsr	0,?_GetCANRxFifo+13
  4975  001A1E  0E0E               	movlw	14
  4976  001A20                     u2991:
  4977  001A20  CFDD FFED          	movff	postdec2,postdec0
  4978  001A24  2EE8               	decfsz	wreg,f,c
  4979  001A26  D7FC               	goto	u2991
  4980  001A28  2AE9               	incf	fsr0l,f,c
  4981  001A2A  22EA               	addwfc	fsr0h,f,c
  4982  001A2C  0012               	return	
  4983  001A2E                     __end_of_GetCANRxFifo:
  4984                           	opt stack 0
  4985                           prodh	equ	0xFF4
  4986                           prodl	equ	0xFF3
  4987                           intcon	equ	0xFF2
  4988                           postinc0	equ	0xFEE
  4989                           postdec0	equ	0xFED
  4990                           fsr0h	equ	0xFEA
  4991                           fsr0l	equ	0xFE9
  4992                           wreg	equ	0xFE8
  4993                           postinc1	equ	0xFE6
  4994                           fsr1h	equ	0xFE2
  4995                           fsr1l	equ	0xFE1
  4996                           indf2	equ	0xFDF
  4997                           postinc2	equ	0xFDE
  4998                           postdec2	equ	0xFDD
  4999                           fsr2h	equ	0xFDA
  5000                           fsr2l	equ	0xFD9
  5001                           status	equ	0xFD8
  5002                           
  5003 ;; *************** function _ECANSendMessage *****************
  5004 ;; Defined at:
  5005 ;;		line 610 in file "ECANPoll.c"
  5006 ;; Parameters:    Size  Location     Type
  5007 ;;  id              4   25[BANK0 ] unsigned long 
  5008 ;;  data            2   29[BANK0 ] PTR unsigned char 
  5009 ;;		 -> main@TempCANTxMsg(14), 
  5010 ;;  dataLen         1   31[BANK0 ] unsigned char 
  5011 ;;  msgFlags        1   32[BANK0 ] enum E19280
  5012 ;; Auto vars:     Size  Location     Type
  5013 ;;  pb             18   34[BANK0 ] PTR unsigned char [9]
  5014 ;;		 -> TXB2CON(1), TXB1CON(1), TXB0CON(1), 
  5015 ;;  ptr             2   57[BANK0 ] PTR unsigned char 
  5016 ;;		 -> TXB2CON(1), TXB1CON(1), TXB0CON(1), 
  5017 ;;  tempPtr         2   53[BANK0 ] PTR unsigned char 
  5018 ;;		 -> TXB2CON(1), TXB1CON(1), TXB0CON(1), 
  5019 ;;  i               1   56[BANK0 ] unsigned char 
  5020 ;;  temp            1   55[BANK0 ] unsigned char 
  5021 ;;  j               1   52[BANK0 ] unsigned char 
  5022 ;; Return value:  Size  Location     Type
  5023 ;;                  1    wreg      enum E18559
  5024 ;; Registers used:
  5025 ;;		wreg, fsr1l, fsr1h, fsr2l, fsr2h, status,2, status,0, prodl, prodh, cstack
  5026 ;; Tracked objects:
  5027 ;;		On entry : 0/0
  5028 ;;		On exit  : 0/0
  5029 ;;		Unchanged: 0/0
  5030 ;; Data sizes:     COMRAM   BANK0   BANK1   BANK2   BANK3   BANK4   BANK5   BANK6   BANK7   BANK8   BANK9  BANK10  BANK1
      +1  BANK12  BANK13  BANK14
  5031 ;;      Params:         0       8       0       0       0       0       0       0       0       0       0       0       
      +0       0       0       0
  5032 ;;      Locals:         0      25       0       0       0       0       0       0       0       0       0       0       
      +0       0       0       0
  5033 ;;      Temps:          0       1       0       0       0       0       0       0       0       0       0       0       
      +0       0       0       0
  5034 ;;      Totals:         0      34       0       0       0       0       0       0       0       0       0       0       
      +0       0       0       0
  5035 ;;Total ram usage:       34 bytes
  5036 ;; Hardware stack levels used:    1
  5037 ;; Hardware stack levels required when called:    6
  5038 ;; This function calls:
  5039 ;;		__CANIDToRegs
  5040 ;; This function is called by:
  5041 ;;		_main
  5042 ;; This function uses a non-reentrant model
  5043 ;;
  5044                           
  5045                           	psect	text15
  5046  001090                     __ptext15:
  5047                           	opt stack 0
  5048  001090                     _ECANSendMessage:
  5049                           	opt stack 23
  5050                           
  5051                           ;ECANPoll.c: 625: BYTE i,j;
  5052                           ;ECANPoll.c: 626: BYTE *ptr, *tempPtr;
  5053                           ;ECANPoll.c: 627: BYTE* pb[9];
  5054                           ;ECANPoll.c: 628: BYTE temp;
  5055                           ;ECANPoll.c: 638: pb[0]=(BYTE*)&TXB0CON;
  5056                           
  5057                           ;incstack = 0
  5058  001090  010F               	movlb	15	; () banked
  5059  001092  0E0F               	movlw	15	;volatile
  5060  001094  0100               	movlb	0	; () banked
  5061  001096  0100               	movlb	0	; () banked
  5062  001098  6F83               	movwf	(ECANSendMessage@pb+1)& (0+255),b
  5063  00109A  010F               	movlb	15	; () banked
  5064  00109C  0E20               	movlw	32	;volatile
  5065  00109E  0100               	movlb	0	; () banked
  5066  0010A0  0100               	movlb	0	; () banked
  5067  0010A2  6F82               	movwf	ECANSendMessage@pb& (0+255),b
  5068                           
  5069                           ;ECANPoll.c: 639: pb[1]=(BYTE*)&TXB1CON;
  5070  0010A4  010F               	movlb	15	; () banked
  5071  0010A6  0E0F               	movlw	15	;volatile
  5072  0010A8  0100               	movlb	0	; () banked
  5073  0010AA  0100               	movlb	0	; () banked
  5074  0010AC  6F85               	movwf	(ECANSendMessage@pb+3)& (0+255),b
  5075  0010AE  010F               	movlb	15	; () banked
  5076  0010B0  0E10               	movlw	16	;volatile
  5077  0010B2  0100               	movlb	0	; () banked
  5078  0010B4  0100               	movlb	0	; () banked
  5079  0010B6  6F84               	movwf	(ECANSendMessage@pb+2)& (0+255),b
  5080                           
  5081                           ;ECANPoll.c: 640: pb[2]=(BYTE*)&TXB2CON;
  5082  0010B8  010F               	movlb	15	; () banked
  5083  0010BA  0E0F               	movlw	15	;volatile
  5084  0010BC  0100               	movlb	0	; () banked
  5085  0010BE  0100               	movlb	0	; () banked
  5086  0010C0  6F87               	movwf	(ECANSendMessage@pb+5)& (0+255),b
  5087  0010C2  010F               	movlb	15	; () banked
  5088  0010C4  0E00               	movlw	0	;volatile
  5089  0010C6  0100               	movlb	0	; () banked
  5090  0010C8  0100               	movlb	0	; () banked
  5091  0010CA  6F86               	movwf	(ECANSendMessage@pb+4)& (0+255),b
  5092                           
  5093                           ; BSR set to: 0
  5094                           ;ECANPoll.c: 670: for ( i = 0; i < 2; i++ )
  5095  0010CC  0100               	movlb	0	; () banked
  5096  0010CE  6F81               	movwf	??_ECANSendMessage& (0+255),b
  5097  0010D0  0E00               	movlw	0
  5098  0010D2  0100               	movlb	0	; () banked
  5099  0010D4  0100               	movlb	0	; () banked
  5100  0010D6  6F98               	movwf	ECANSendMessage@i& (0+255),b
  5101  0010D8  0100               	movlb	0	; () banked
  5102  0010DA  5181               	movf	??_ECANSendMessage& (0+255),w,b
  5103                           
  5104                           ; BSR set to: 0
  5105  0010DC  0E01               	movlw	1
  5106  0010DE  0100               	movlb	0	; () banked
  5107  0010E0  0100               	movlb	0	; () banked
  5108  0010E2  6598               	cpfsgt	ECANSendMessage@i& (0+255),b
  5109  0010E4  D001               	goto	l4184
  5110  0010E6  0012               	return	
  5111  0010E8                     l4184:
  5112                           
  5113                           ; BSR set to: 0
  5114                           ;ECANPoll.c: 685: {
  5115                           ;ECANPoll.c: 690: ptr = pb[i];
  5116  0010E8  0100               	movlb	0	; () banked
  5117  0010EA  0100               	movlb	0	; () banked
  5118  0010EC  5198               	movf	ECANSendMessage@i& (0+255),w,b
  5119  0010EE  0D02               	mullw	2
  5120  0010F0  0100               	movlb	0	; () banked
  5121  0010F2  0E82               	movlw	low ECANSendMessage@pb
  5122  0010F4  24F3               	addwf	prodl,w,c
  5123  0010F6  6ED9               	movwf	fsr2l,c
  5124  0010F8  0100               	movlb	0	; () banked
  5125  0010FA  0E00               	movlw	high ECANSendMessage@pb
  5126  0010FC  20F4               	addwfc	prodh,w,c
  5127  0010FE  6EDA               	movwf	fsr2h,c
  5128  001100  0100               	movlb	0	; () banked
  5129  001102  CFDE F099          	movff	postinc2,ECANSendMessage@ptr
  5130  001106  0100               	movlb	0	; () banked
  5131  001108  CFDD F09A          	movff	postdec2,ECANSendMessage@ptr+1
  5132                           
  5133                           ; BSR set to: 0
  5134                           ;ECANPoll.c: 691: tempPtr = ptr;
  5135  00110C  0100               	movlb	0	; () banked
  5136  00110E  0100               	movlb	0	; () banked
  5137  001110  C09A  F096         	movff	ECANSendMessage@ptr+1,ECANSendMessage@tempPtr+1
  5138  001114  0100               	movlb	0	; () banked
  5139  001116  0100               	movlb	0	; () banked
  5140  001118  C099  F095         	movff	ECANSendMessage@ptr,ECANSendMessage@tempPtr
  5141                           
  5142                           ; BSR set to: 0
  5143                           ;ECANPoll.c: 717: if ( !(*ptr & 0x08) )
  5144  00111C  C099  FFD9         	movff	ECANSendMessage@ptr,fsr2l
  5145  001120  C09A  FFDA         	movff	ECANSendMessage@ptr+1,fsr2h
  5146  001124  50DF               	movf	indf2,w,c
  5147  001126  0100               	movlb	0	; () banked
  5148  001128  6F81               	movwf	??_ECANSendMessage& (0+255),b
  5149  00112A  0100               	movlb	0	; () banked
  5150  00112C  B781               	btfsc	??_ECANSendMessage& (0+255),3,b
  5151  00112E  D093               	goto	l4228
  5152                           
  5153                           ; BSR set to: 0
  5154                           ;ECANPoll.c: 718: {
  5155                           ;ECANPoll.c: 720: *ptr &= ~ECAN_TX_PRIORITY_BITS;
  5156  001130  C099  FFD9         	movff	ECANSendMessage@ptr,fsr2l
  5157  001134  C09A  FFDA         	movff	ECANSendMessage@ptr+1,fsr2h
  5158  001138  0EFC               	movlw	252
  5159  00113A  16DF               	andwf	indf2,f,c
  5160                           
  5161                           ; BSR set to: 0
  5162                           ;ECANPoll.c: 721: *ptr |= msgFlags & ECAN_TX_PRIORITY_BITS;
  5163  00113C  C080  F081         	movff	ECANSendMessage@msgFlags,??_ECANSendMessage
  5164  001140  0E03               	movlw	3
  5165  001142  0100               	movlb	0	; () banked
  5166  001144  1781               	andwf	??_ECANSendMessage& (0+255),f,b
  5167  001146  C099  FFD9         	movff	ECANSendMessage@ptr,fsr2l
  5168  00114A  C09A  FFDA         	movff	ECANSendMessage@ptr+1,fsr2h
  5169  00114E  0100               	movlb	0	; () banked
  5170  001150  5181               	movf	??_ECANSendMessage& (0+255),w,b
  5171  001152  12DF               	iorwf	indf2,f,c
  5172                           
  5173                           ; BSR set to: 0
  5174                           ;ECANPoll.c: 724: if ( msgFlags & ECAN_TX_RTR_BIT )
  5175  001154  0100               	movlb	0	; () banked
  5176  001156  0100               	movlb	0	; () banked
  5177  001158  AD80               	btfss	ECANSendMessage@msgFlags& (0+255),6,b
  5178  00115A  D008               	goto	l438
  5179                           
  5180                           ; BSR set to: 0
  5181                           ;ECANPoll.c: 725: temp = 0x40 | dataLen;
  5182  00115C  0100               	movlb	0	; () banked
  5183  00115E  0100               	movlb	0	; () banked
  5184  001160  517F               	movf	ECANSendMessage@dataLen& (0+255),w,b
  5185  001162  0940               	iorlw	64
  5186  001164  0100               	movlb	0	; () banked
  5187  001166  0100               	movlb	0	; () banked
  5188  001168  6F97               	movwf	ECANSendMessage@temp& (0+255),b
  5189  00116A  D002               	goto	l4198
  5190  00116C                     l438:
  5191                           
  5192                           ; BSR set to: 0
  5193                           ;ECANPoll.c: 726: else
  5194                           ;ECANPoll.c: 727: temp = dataLen;
  5195  00116C  C07F  F097         	movff	ECANSendMessage@dataLen,ECANSendMessage@temp
  5196  001170                     l4198:
  5197                           
  5198                           ; BSR set to: 0
  5199                           ;ECANPoll.c: 729: *(ptr+5) = temp;
  5200  001170  0100               	movlb	0	; () banked
  5201  001172  EE20 F005          	lfsr	2,5
  5202  001176  0100               	movlb	0	; () banked
  5203  001178  5199               	movf	ECANSendMessage@ptr& (0+255),w,b
  5204  00117A  26D9               	addwf	fsr2l,f,c
  5205  00117C  0100               	movlb	0	; () banked
  5206  00117E  519A               	movf	(ECANSendMessage@ptr+1)& (0+255),w,b
  5207  001180  22DA               	addwfc	fsr2h,f,c
  5208  001182  0100               	movlb	0	; () banked
  5209  001184  C097  FFDF         	movff	ECANSendMessage@temp,indf2
  5210                           
  5211                           ; BSR set to: 0
  5212                           ;ECANPoll.c: 732: if ( msgFlags & ECAN_TX_FRAME_BIT )
  5213  001188  0100               	movlb	0	; () banked
  5214  00118A  0100               	movlb	0	; () banked
  5215  00118C  AB80               	btfss	ECANSendMessage@msgFlags& (0+255),5,b
  5216  00118E  D004               	goto	l4204
  5217                           
  5218                           ; BSR set to: 0
  5219                           ;ECANPoll.c: 733: temp = 1;
  5220  001190  0100               	movlb	0	; () banked
  5221  001192  6F81               	movwf	??_ECANSendMessage& (0+255),b
  5222  001194  0E01               	movlw	1
  5223  001196  D003               	goto	L4
  5224  001198                     l4204:
  5225                           
  5226                           ; BSR set to: 0
  5227                           ;ECANPoll.c: 735: else
  5228                           ;ECANPoll.c: 736: temp = 0;
  5229  001198  0100               	movlb	0	; () banked
  5230  00119A  6F81               	movwf	??_ECANSendMessage& (0+255),b
  5231  00119C  0E00               	movlw	0
  5232  00119E                     L4:
  5233  00119E  0100               	movlb	0	; () banked
  5234  0011A0  0100               	movlb	0	; () banked
  5235  0011A2  6F97               	movwf	ECANSendMessage@temp& (0+255),b
  5236  0011A4  0100               	movlb	0	; () banked
  5237  0011A6  5181               	movf	??_ECANSendMessage& (0+255),w,b
  5238                           
  5239                           ; BSR set to: 0
  5240                           ;ECANPoll.c: 739: _CANIDToRegs((BYTE*)(ptr+1), id, temp);
  5241                           
  5242                           ; BSR set to: 0
  5243  0011A8  0E01               	movlw	1
  5244  0011AA  0100               	movlb	0	; () banked
  5245  0011AC  0100               	movlb	0	; () banked
  5246  0011AE  2599               	addwf	ECANSendMessage@ptr& (0+255),w,b
  5247  0011B0  0100               	movlb	0	; () banked
  5248  0011B2  0100               	movlb	0	; () banked
  5249  0011B4  6F6E               	movwf	__CANIDToRegs@ptr& (0+255),b
  5250  0011B6  0E00               	movlw	0
  5251  0011B8  0100               	movlb	0	; () banked
  5252  0011BA  0100               	movlb	0	; () banked
  5253  0011BC  219A               	addwfc	(ECANSendMessage@ptr+1)& (0+255),w,b
  5254  0011BE  0100               	movlb	0	; () banked
  5255  0011C0  6F6F               	movwf	(__CANIDToRegs@ptr+1)& (0+255),b
  5256  0011C2  C079  F070         	movff	ECANSendMessage@id,__CANIDToRegs@val
  5257  0011C6  C07A  F071         	movff	ECANSendMessage@id+1,__CANIDToRegs@val+1
  5258  0011CA  C07B  F072         	movff	ECANSendMessage@id+2,__CANIDToRegs@val+2
  5259  0011CE  C07C  F073         	movff	ECANSendMessage@id+3,__CANIDToRegs@val+3
  5260  0011D2  C097  F074         	movff	ECANSendMessage@temp,__CANIDToRegs@type
  5261  0011D6  EC58  F007         	call	__CANIDToRegs	;wreg free
  5262                           
  5263                           ;ECANPoll.c: 742: ptr += 6;
  5264  0011DA  0E06               	movlw	6
  5265  0011DC  0100               	movlb	0	; () banked
  5266  0011DE  0100               	movlb	0	; () banked
  5267  0011E0  2799               	addwf	ECANSendMessage@ptr& (0+255),f,b
  5268  0011E2  0E00               	movlw	0
  5269  0011E4  0100               	movlb	0	; () banked
  5270  0011E6  239A               	addwfc	(ECANSendMessage@ptr+1)& (0+255),f,b
  5271                           
  5272                           ; BSR set to: 0
  5273                           ;ECANPoll.c: 744: for ( j = 0 ; j < dataLen; j++ )
  5274  0011E8  0100               	movlb	0	; () banked
  5275  0011EA  6F81               	movwf	??_ECANSendMessage& (0+255),b
  5276  0011EC  0E00               	movlw	0
  5277  0011EE  0100               	movlb	0	; () banked
  5278  0011F0  0100               	movlb	0	; () banked
  5279  0011F2  6F94               	movwf	ECANSendMessage@j& (0+255),b
  5280  0011F4  0100               	movlb	0	; () banked
  5281  0011F6  5181               	movf	??_ECANSendMessage& (0+255),w,b
  5282  0011F8  D015               	goto	l4220
  5283  0011FA                     l4212:
  5284                           
  5285                           ; BSR set to: 0
  5286                           ;ECANPoll.c: 745: *ptr++ = *data++;
  5287  0011FA  C07D  FFD9         	movff	ECANSendMessage@data,fsr2l
  5288  0011FE  C07E  FFDA         	movff	ECANSendMessage@data+1,fsr2h
  5289  001202  C099  FFE1         	movff	ECANSendMessage@ptr,fsr1l
  5290  001206  C09A  FFE2         	movff	ECANSendMessage@ptr+1,fsr1h
  5291  00120A  CFDF FFE7          	movff	indf2,indf1
  5292                           
  5293                           ; BSR set to: 0
  5294  00120E  0100               	movlb	0	; () banked
  5295  001210  0100               	movlb	0	; () banked
  5296  001212  4B7D               	infsnz	ECANSendMessage@data& (0+255),f,b
  5297  001214  2B7E               	incf	(ECANSendMessage@data+1)& (0+255),f,b
  5298                           
  5299                           ; BSR set to: 0
  5300  001216  0100               	movlb	0	; () banked
  5301  001218  0100               	movlb	0	; () banked
  5302  00121A  4B99               	infsnz	ECANSendMessage@ptr& (0+255),f,b
  5303  00121C  2B9A               	incf	(ECANSendMessage@ptr+1)& (0+255),f,b
  5304                           
  5305                           ; BSR set to: 0
  5306  00121E  0100               	movlb	0	; () banked
  5307  001220  0100               	movlb	0	; () banked
  5308  001222  2B94               	incf	ECANSendMessage@j& (0+255),f,b
  5309  001224                     l4220:
  5310                           
  5311                           ; BSR set to: 0
  5312  001224  0100               	movlb	0	; () banked
  5313  001226  0100               	movlb	0	; () banked
  5314  001228  517F               	movf	ECANSendMessage@dataLen& (0+255),w,b
  5315  00122A  0100               	movlb	0	; () banked
  5316  00122C  0100               	movlb	0	; () banked
  5317  00122E  5D94               	subwf	ECANSendMessage@j& (0+255),w,b
  5318  001230  A0D8               	btfss	status,0,c
  5319  001232  D7E3               	goto	l4212
  5320                           
  5321                           ; BSR set to: 0
  5322                           ;ECANPoll.c: 749: if ( !(*tempPtr & 0x04) )
  5323                           
  5324                           ; BSR set to: 0
  5325  001234  C095  FFD9         	movff	ECANSendMessage@tempPtr,fsr2l
  5326  001238  C096  FFDA         	movff	ECANSendMessage@tempPtr+1,fsr2h
  5327  00123C  50DF               	movf	indf2,w,c
  5328  00123E  0100               	movlb	0	; () banked
  5329  001240  6F81               	movwf	??_ECANSendMessage& (0+255),b
  5330  001242  0100               	movlb	0	; () banked
  5331  001244  B581               	btfsc	??_ECANSendMessage& (0+255),2,b
  5332  001246  0012               	return	
  5333                           
  5334                           ; BSR set to: 0
  5335                           ;ECANPoll.c: 750: *tempPtr |= 0x08;
  5336  001248  C095  FFD9         	movff	ECANSendMessage@tempPtr,fsr2l
  5337  00124C  C096  FFDA         	movff	ECANSendMessage@tempPtr+1,fsr2h
  5338  001250  0E00               	movlw	0
  5339  001252  86DB               	bsf	plusw2,3,c
  5340  001254  0012               	return	
  5341  001256                     l4228:
  5342                           
  5343                           ; BSR set to: 0
  5344  001256  0100               	movlb	0	; () banked
  5345  001258  0100               	movlb	0	; () banked
  5346  00125A  2B98               	incf	ECANSendMessage@i& (0+255),f,b
  5347                           
  5348                           ; BSR set to: 0
  5349  00125C  0E01               	movlw	1
  5350  00125E  0100               	movlb	0	; () banked
  5351  001260  0100               	movlb	0	; () banked
  5352  001262  6598               	cpfsgt	ECANSendMessage@i& (0+255),b
  5353  001264  D741               	goto	l4184
  5354  001266  0012               	return	
  5355  001268                     __end_of_ECANSendMessage:
  5356                           	opt stack 0
  5357                           prodh	equ	0xFF4
  5358                           prodl	equ	0xFF3
  5359                           intcon	equ	0xFF2
  5360                           postinc0	equ	0xFEE
  5361                           postdec0	equ	0xFED
  5362                           fsr0h	equ	0xFEA
  5363                           fsr0l	equ	0xFE9
  5364                           wreg	equ	0xFE8
  5365                           indf1	equ	0xFE7
  5366                           postinc1	equ	0xFE6
  5367                           fsr1h	equ	0xFE2
  5368                           fsr1l	equ	0xFE1
  5369                           indf2	equ	0xFDF
  5370                           postinc2	equ	0xFDE
  5371                           postdec2	equ	0xFDD
  5372                           plusw2	equ	0xFDB
  5373                           fsr2h	equ	0xFDA
  5374                           fsr2l	equ	0xFD9
  5375                           status	equ	0xFD8
  5376                           
  5377 ;; *************** function __CANIDToRegs *****************
  5378 ;; Defined at:
  5379 ;;		line 1097 in file "ECANPoll.c"
  5380 ;; Parameters:    Size  Location     Type
  5381 ;;  ptr             2   14[BANK0 ] PTR unsigned char 
  5382 ;;		 -> TXB2CON(1), TXB1CON(1), TXB0CON(1), 
  5383 ;;  val             4   16[BANK0 ] unsigned long 
  5384 ;;  type            1   20[BANK0 ] unsigned char 
  5385 ;; Auto vars:     Size  Location     Type
  5386 ;;  Value           2   23[BANK0 ] PTR struct _CAN_MESSAGE_
  5387 ;;		 -> _CANIDToRegs@val(4), 
  5388 ;; Return value:  Size  Location     Type
  5389 ;;		None               void
  5390 ;; Registers used:
  5391 ;;		wreg, fsr1l, fsr1h, fsr2l, fsr2h, status,2, status,0
  5392 ;; Tracked objects:
  5393 ;;		On entry : 0/0
  5394 ;;		On exit  : 0/0
  5395 ;;		Unchanged: 0/0
  5396 ;; Data sizes:     COMRAM   BANK0   BANK1   BANK2   BANK3   BANK4   BANK5   BANK6   BANK7   BANK8   BANK9  BANK10  BANK1
      +1  BANK12  BANK13  BANK14
  5397 ;;      Params:         0       7       0       0       0       0       0       0       0       0       0       0       
      +0       0       0       0
  5398 ;;      Locals:         0       2       0       0       0       0       0       0       0       0       0       0       
      +0       0       0       0
  5399 ;;      Temps:          0       2       0       0       0       0       0       0       0       0       0       0       
      +0       0       0       0
  5400 ;;      Totals:         0      11       0       0       0       0       0       0       0       0       0       0       
      +0       0       0       0
  5401 ;;Total ram usage:       11 bytes
  5402 ;; Hardware stack levels used:    1
  5403 ;; Hardware stack levels required when called:    5
  5404 ;; This function calls:
  5405 ;;		Nothing
  5406 ;; This function is called by:
  5407 ;;		_ECANSendMessage
  5408 ;; This function uses a non-reentrant model
  5409 ;;
  5410                           
  5411                           	psect	text16
  5412  000EB0                     __ptext16:
  5413                           	opt stack 0
  5414  000EB0                     __CANIDToRegs:
  5415                           	opt stack 23
  5416                           
  5417                           ;ECANPoll.c: 1101: CAN_MESSAGE_ID *Value;
  5418                           ;ECANPoll.c: 1103: Value = (CAN_MESSAGE_ID*)&val;
  5419                           
  5420                           ; BSR set to: 0
  5421                           ;incstack = 0
  5422  000EB0  0100               	movlb	0	; () banked
  5423  000EB2  0E00               	movlw	high __CANIDToRegs@val
  5424  000EB4  0100               	movlb	0	; () banked
  5425  000EB6  0100               	movlb	0	; () banked
  5426  000EB8  6F78               	movwf	(__CANIDToRegs@Value+1)& (0+255),b
  5427  000EBA  0100               	movlb	0	; () banked
  5428  000EBC  0E70               	movlw	low __CANIDToRegs@val
  5429  000EBE  0100               	movlb	0	; () banked
  5430  000EC0  0100               	movlb	0	; () banked
  5431  000EC2  6F77               	movwf	__CANIDToRegs@Value& (0+255),b
  5432                           
  5433                           ; BSR set to: 0
  5434                           ;ECANPoll.c: 1105: if ( type == 0 )
  5435  000EC4  0100               	movlb	0	; () banked
  5436  000EC6  0100               	movlb	0	; () banked
  5437  000EC8  6774               	tstfsz	__CANIDToRegs@type& (0+255),b
  5438  000ECA  D04D               	goto	l4260
  5439                           
  5440                           ; BSR set to: 0
  5441                           ;ECANPoll.c: 1106: {
  5442                           ;ECANPoll.c: 1108: *ptr = Value->BYTES.BYTE_1 >> 3;
  5443  000ECC  C077  FFD9         	movff	__CANIDToRegs@Value,fsr2l
  5444  000ED0  C078  FFDA         	movff	__CANIDToRegs@Value+1,fsr2h
  5445  000ED4  50DF               	movf	indf2,w,c
  5446  000ED6  0100               	movlb	0	; () banked
  5447  000ED8  6F75               	movwf	??__CANIDToRegs& (0+255),b
  5448  000EDA  0100               	movlb	0	; () banked
  5449  000EDC  90D8               	bcf	status,0,c
  5450  000EDE  3375               	rrcf	??__CANIDToRegs& (0+255),f,b
  5451  000EE0  0100               	movlb	0	; () banked
  5452  000EE2  90D8               	bcf	status,0,c
  5453  000EE4  3375               	rrcf	??__CANIDToRegs& (0+255),f,b
  5454  000EE6  0100               	movlb	0	; () banked
  5455  000EE8  90D8               	bcf	status,0,c
  5456  000EEA  3175               	rrcf	??__CANIDToRegs& (0+255),w,b
  5457  000EEC  C06E  FFD9         	movff	__CANIDToRegs@ptr,fsr2l
  5458  000EF0  C06F  FFDA         	movff	__CANIDToRegs@ptr+1,fsr2h
  5459  000EF4  6EDF               	movwf	indf2,c
  5460                           
  5461                           ;ECANPoll.c: 1109: *ptr |= (Value->BYTES.BYTE_2 << 5);
  5462  000EF6  0100               	movlb	0	; () banked
  5463  000EF8  EE20 F001          	lfsr	2,1
  5464  000EFC  0100               	movlb	0	; () banked
  5465  000EFE  5177               	movf	__CANIDToRegs@Value& (0+255),w,b
  5466  000F00  26D9               	addwf	fsr2l,f,c
  5467  000F02  0100               	movlb	0	; () banked
  5468  000F04  5178               	movf	(__CANIDToRegs@Value+1)& (0+255),w,b
  5469  000F06  22DA               	addwfc	fsr2h,f,c
  5470  000F08  50DF               	movf	indf2,w,c
  5471  000F0A  0100               	movlb	0	; () banked
  5472  000F0C  6F75               	movwf	??__CANIDToRegs& (0+255),b
  5473  000F0E  0E05               	movlw	5
  5474  000F10  0100               	movlb	0	; () banked
  5475  000F12  6F76               	movwf	(??__CANIDToRegs+1)& (0+255),b
  5476  000F14                     u3245:
  5477  000F14  0100               	movlb	0	; () banked
  5478  000F16  90D8               	bcf	status,0,c
  5479  000F18  3775               	rlcf	??__CANIDToRegs& (0+255),f,b
  5480  000F1A  0100               	movlb	0	; () banked
  5481  000F1C  2F76               	decfsz	(??__CANIDToRegs+1)& (0+255),f,b
  5482  000F1E  D7FA               	goto	u3245
  5483  000F20  C06E  FFD9         	movff	__CANIDToRegs@ptr,fsr2l
  5484  000F24  C06F  FFDA         	movff	__CANIDToRegs@ptr+1,fsr2h
  5485  000F28  0100               	movlb	0	; () banked
  5486  000F2A  5175               	movf	??__CANIDToRegs& (0+255),w,b
  5487  000F2C  12DF               	iorwf	indf2,f,c
  5488                           
  5489                           ; BSR set to: 0
  5490                           ;ECANPoll.c: 1110: ptr++;
  5491  000F2E  0100               	movlb	0	; () banked
  5492  000F30  0100               	movlb	0	; () banked
  5493  000F32  4B6E               	infsnz	__CANIDToRegs@ptr& (0+255),f,b
  5494  000F34  2B6F               	incf	(__CANIDToRegs@ptr+1)& (0+255),f,b
  5495                           
  5496                           ; BSR set to: 0
  5497                           ;ECANPoll.c: 1111: *ptr = Value->BYTES.BYTE_1 << 5;
  5498  000F36  C077  FFD9         	movff	__CANIDToRegs@Value,fsr2l
  5499  000F3A  C078  FFDA         	movff	__CANIDToRegs@Value+1,fsr2h
  5500  000F3E  50DF               	movf	indf2,w,c
  5501  000F40  0100               	movlb	0	; () banked
  5502  000F42  6F75               	movwf	??__CANIDToRegs& (0+255),b
  5503  000F44  0E05               	movlw	5
  5504  000F46  0100               	movlb	0	; () banked
  5505  000F48  6F76               	movwf	(??__CANIDToRegs+1)& (0+255),b
  5506  000F4A                     u3255:
  5507  000F4A  0100               	movlb	0	; () banked
  5508  000F4C  90D8               	bcf	status,0,c
  5509  000F4E  3775               	rlcf	??__CANIDToRegs& (0+255),f,b
  5510  000F50  0100               	movlb	0	; () banked
  5511  000F52  2F76               	decfsz	(??__CANIDToRegs+1)& (0+255),f,b
  5512  000F54  D7FA               	goto	u3255
  5513  000F56  0100               	movlb	0	; () banked
  5514  000F58  5175               	movf	??__CANIDToRegs& (0+255),w,b
  5515  000F5A  C06E  FFD9         	movff	__CANIDToRegs@ptr,fsr2l
  5516  000F5E  C06F  FFDA         	movff	__CANIDToRegs@ptr+1,fsr2h
  5517  000F62  6EDF               	movwf	indf2,c
  5518                           
  5519                           ;ECANPoll.c: 1112: }
  5520  000F64  0012               	return	
  5521  000F66                     l4260:
  5522                           
  5523                           ; BSR set to: 0
  5524                           ;ECANPoll.c: 1113: else
  5525                           ;ECANPoll.c: 1114: {
  5526                           ;ECANPoll.c: 1116: *ptr = Value->BYTES.BYTE_3 >> 5;
  5527  000F66  0100               	movlb	0	; () banked
  5528  000F68  EE20 F002          	lfsr	2,2
  5529  000F6C  0100               	movlb	0	; () banked
  5530  000F6E  5177               	movf	__CANIDToRegs@Value& (0+255),w,b
  5531  000F70  26D9               	addwf	fsr2l,f,c
  5532  000F72  0100               	movlb	0	; () banked
  5533  000F74  5178               	movf	(__CANIDToRegs@Value+1)& (0+255),w,b
  5534  000F76  22DA               	addwfc	fsr2h,f,c
  5535  000F78  50DF               	movf	indf2,w,c
  5536  000F7A  0100               	movlb	0	; () banked
  5537  000F7C  6F75               	movwf	??__CANIDToRegs& (0+255),b
  5538  000F7E  0E05               	movlw	5
  5539  000F80  0100               	movlb	0	; () banked
  5540  000F82  6F76               	movwf	(??__CANIDToRegs+1)& (0+255),b
  5541  000F84                     u3265:
  5542  000F84  0100               	movlb	0	; () banked
  5543  000F86  90D8               	bcf	status,0,c
  5544  000F88  3375               	rrcf	??__CANIDToRegs& (0+255),f,b
  5545  000F8A  0100               	movlb	0	; () banked
  5546  000F8C  2F76               	decfsz	(??__CANIDToRegs+1)& (0+255),f,b
  5547  000F8E  D7FA               	goto	u3265
  5548  000F90  0100               	movlb	0	; () banked
  5549  000F92  5175               	movf	??__CANIDToRegs& (0+255),w,b
  5550  000F94  C06E  FFD9         	movff	__CANIDToRegs@ptr,fsr2l
  5551  000F98  C06F  FFDA         	movff	__CANIDToRegs@ptr+1,fsr2h
  5552  000F9C  6EDF               	movwf	indf2,c
  5553                           
  5554                           ;ECANPoll.c: 1117: *ptr |= Value->BYTES.BYTE_4 << 3;
  5555  000F9E  0100               	movlb	0	; () banked
  5556  000FA0  EE20 F003          	lfsr	2,3
  5557  000FA4  0100               	movlb	0	; () banked
  5558  000FA6  5177               	movf	__CANIDToRegs@Value& (0+255),w,b
  5559  000FA8  26D9               	addwf	fsr2l,f,c
  5560  000FAA  0100               	movlb	0	; () banked
  5561  000FAC  5178               	movf	(__CANIDToRegs@Value+1)& (0+255),w,b
  5562  000FAE  22DA               	addwfc	fsr2h,f,c
  5563  000FB0  50DF               	movf	indf2,w,c
  5564  000FB2  0100               	movlb	0	; () banked
  5565  000FB4  6F75               	movwf	??__CANIDToRegs& (0+255),b
  5566  000FB6  0100               	movlb	0	; () banked
  5567  000FB8  90D8               	bcf	status,0,c
  5568  000FBA  3775               	rlcf	??__CANIDToRegs& (0+255),f,b
  5569  000FBC  0100               	movlb	0	; () banked
  5570  000FBE  90D8               	bcf	status,0,c
  5571  000FC0  3775               	rlcf	??__CANIDToRegs& (0+255),f,b
  5572  000FC2  0100               	movlb	0	; () banked
  5573  000FC4  90D8               	bcf	status,0,c
  5574  000FC6  3775               	rlcf	??__CANIDToRegs& (0+255),f,b
  5575  000FC8  C06E  FFD9         	movff	__CANIDToRegs@ptr,fsr2l
  5576  000FCC  C06F  FFDA         	movff	__CANIDToRegs@ptr+1,fsr2h
  5577  000FD0  0100               	movlb	0	; () banked
  5578  000FD2  5175               	movf	??__CANIDToRegs& (0+255),w,b
  5579  000FD4  12DF               	iorwf	indf2,f,c
  5580                           
  5581                           ; BSR set to: 0
  5582                           ;ECANPoll.c: 1118: ptr++;
  5583  000FD6  0100               	movlb	0	; () banked
  5584  000FD8  0100               	movlb	0	; () banked
  5585  000FDA  4B6E               	infsnz	__CANIDToRegs@ptr& (0+255),f,b
  5586  000FDC  2B6F               	incf	(__CANIDToRegs@ptr+1)& (0+255),f,b
  5587                           
  5588                           ; BSR set to: 0
  5589                           ;ECANPoll.c: 1119: *ptr = (Value->BYTES.BYTE_3 << 3) & 0xE0;
  5590  000FDE  0100               	movlb	0	; () banked
  5591  000FE0  EE20 F002          	lfsr	2,2
  5592  000FE4  0100               	movlb	0	; () banked
  5593  000FE6  5177               	movf	__CANIDToRegs@Value& (0+255),w,b
  5594  000FE8  26D9               	addwf	fsr2l,f,c
  5595  000FEA  0100               	movlb	0	; () banked
  5596  000FEC  5178               	movf	(__CANIDToRegs@Value+1)& (0+255),w,b
  5597  000FEE  22DA               	addwfc	fsr2h,f,c
  5598  000FF0  50DF               	movf	indf2,w,c
  5599  000FF2  0100               	movlb	0	; () banked
  5600  000FF4  6F75               	movwf	??__CANIDToRegs& (0+255),b
  5601  000FF6  0100               	movlb	0	; () banked
  5602  000FF8  90D8               	bcf	status,0,c
  5603  000FFA  3775               	rlcf	??__CANIDToRegs& (0+255),f,b
  5604  000FFC  0100               	movlb	0	; () banked
  5605  000FFE  90D8               	bcf	status,0,c
  5606  001000  3775               	rlcf	??__CANIDToRegs& (0+255),f,b
  5607  001002  0100               	movlb	0	; () banked
  5608  001004  90D8               	bcf	status,0,c
  5609  001006  3575               	rlcf	??__CANIDToRegs& (0+255),w,b
  5610  001008  0BE0               	andlw	224
  5611  00100A  C06E  FFD9         	movff	__CANIDToRegs@ptr,fsr2l
  5612  00100E  C06F  FFDA         	movff	__CANIDToRegs@ptr+1,fsr2h
  5613  001012  6EDF               	movwf	indf2,c
  5614                           
  5615                           ; BSR set to: 0
  5616                           ;ECANPoll.c: 1121: *ptr |= 0b00001000;
  5617  001014  C06E  FFD9         	movff	__CANIDToRegs@ptr,fsr2l
  5618  001018  C06F  FFDA         	movff	__CANIDToRegs@ptr+1,fsr2h
  5619  00101C  0E00               	movlw	0
  5620  00101E  86DB               	bsf	plusw2,3,c
  5621                           
  5622                           ; BSR set to: 0
  5623                           ;ECANPoll.c: 1122: *ptr |= Value->BYTES.BYTE_3 & 0x03;
  5624  001020  0100               	movlb	0	; () banked
  5625  001022  EE20 F002          	lfsr	2,2
  5626  001026  0100               	movlb	0	; () banked
  5627  001028  5177               	movf	__CANIDToRegs@Value& (0+255),w,b
  5628  00102A  26D9               	addwf	fsr2l,f,c
  5629  00102C  0100               	movlb	0	; () banked
  5630  00102E  5178               	movf	(__CANIDToRegs@Value+1)& (0+255),w,b
  5631  001030  22DA               	addwfc	fsr2h,f,c
  5632  001032  50DF               	movf	indf2,w,c
  5633  001034  0100               	movlb	0	; () banked
  5634  001036  6F75               	movwf	??__CANIDToRegs& (0+255),b
  5635  001038  0E03               	movlw	3
  5636  00103A  0100               	movlb	0	; () banked
  5637  00103C  1775               	andwf	??__CANIDToRegs& (0+255),f,b
  5638  00103E  C06E  FFD9         	movff	__CANIDToRegs@ptr,fsr2l
  5639  001042  C06F  FFDA         	movff	__CANIDToRegs@ptr+1,fsr2h
  5640  001046  0100               	movlb	0	; () banked
  5641  001048  5175               	movf	??__CANIDToRegs& (0+255),w,b
  5642  00104A  12DF               	iorwf	indf2,f,c
  5643                           
  5644                           ;ECANPoll.c: 1123: ptr++;
  5645  00104C  0100               	movlb	0	; () banked
  5646  00104E  0100               	movlb	0	; () banked
  5647  001050  4B6E               	infsnz	__CANIDToRegs@ptr& (0+255),f,b
  5648  001052  2B6F               	incf	(__CANIDToRegs@ptr+1)& (0+255),f,b
  5649                           
  5650                           ; BSR set to: 0
  5651                           ;ECANPoll.c: 1124: *ptr = Value->BYTES.BYTE_2;
  5652  001054  0100               	movlb	0	; () banked
  5653  001056  EE20 F001          	lfsr	2,1
  5654  00105A  0100               	movlb	0	; () banked
  5655  00105C  5177               	movf	__CANIDToRegs@Value& (0+255),w,b
  5656  00105E  26D9               	addwf	fsr2l,f,c
  5657  001060  0100               	movlb	0	; () banked
  5658  001062  5178               	movf	(__CANIDToRegs@Value+1)& (0+255),w,b
  5659  001064  22DA               	addwfc	fsr2h,f,c
  5660  001066  C06E  FFE1         	movff	__CANIDToRegs@ptr,fsr1l
  5661  00106A  C06F  FFE2         	movff	__CANIDToRegs@ptr+1,fsr1h
  5662  00106E  CFDF FFE7          	movff	indf2,indf1
  5663                           
  5664                           ; BSR set to: 0
  5665                           ;ECANPoll.c: 1125: ptr++;
  5666  001072  0100               	movlb	0	; () banked
  5667  001074  0100               	movlb	0	; () banked
  5668  001076  4B6E               	infsnz	__CANIDToRegs@ptr& (0+255),f,b
  5669  001078  2B6F               	incf	(__CANIDToRegs@ptr+1)& (0+255),f,b
  5670                           
  5671                           ; BSR set to: 0
  5672                           ;ECANPoll.c: 1126: *ptr = Value->BYTES.BYTE_1;
  5673  00107A  C077  FFD9         	movff	__CANIDToRegs@Value,fsr2l
  5674  00107E  C078  FFDA         	movff	__CANIDToRegs@Value+1,fsr2h
  5675  001082  C06E  FFE1         	movff	__CANIDToRegs@ptr,fsr1l
  5676  001086  C06F  FFE2         	movff	__CANIDToRegs@ptr+1,fsr1h
  5677  00108A  CFDF FFE7          	movff	indf2,indf1
  5678  00108E  0012               	return	
  5679  001090                     __end_of__CANIDToRegs:
  5680                           	opt stack 0
  5681                           prodh	equ	0xFF4
  5682                           prodl	equ	0xFF3
  5683                           intcon	equ	0xFF2
  5684                           postinc0	equ	0xFEE
  5685                           postdec0	equ	0xFED
  5686                           fsr0h	equ	0xFEA
  5687                           fsr0l	equ	0xFE9
  5688                           wreg	equ	0xFE8
  5689                           indf1	equ	0xFE7
  5690                           postinc1	equ	0xFE6
  5691                           fsr1h	equ	0xFE2
  5692                           fsr1l	equ	0xFE1
  5693                           indf2	equ	0xFDF
  5694                           postinc2	equ	0xFDE
  5695                           postdec2	equ	0xFDD
  5696                           plusw2	equ	0xFDB
  5697                           fsr2h	equ	0xFDA
  5698                           fsr2l	equ	0xFD9
  5699                           status	equ	0xFD8
  5700                           
  5701 ;; *************** function _ECANInitialize *****************
  5702 ;; Defined at:
  5703 ;;		line 164 in file "ECANPoll.c"
  5704 ;; Parameters:    Size  Location     Type
  5705 ;;		None
  5706 ;; Auto vars:     Size  Location     Type
  5707 ;;		None
  5708 ;; Return value:  Size  Location     Type
  5709 ;;		None               void
  5710 ;; Registers used:
  5711 ;;		wreg, status,2, status,0, cstack
  5712 ;; Tracked objects:
  5713 ;;		On entry : 0/0
  5714 ;;		On exit  : 0/0
  5715 ;;		Unchanged: 0/0
  5716 ;; Data sizes:     COMRAM   BANK0   BANK1   BANK2   BANK3   BANK4   BANK5   BANK6   BANK7   BANK8   BANK9  BANK10  BANK1
      +1  BANK12  BANK13  BANK14
  5717 ;;      Params:         0       0       0       0       0       0       0       0       0       0       0       0       
      +0       0       0       0
  5718 ;;      Locals:         0       0       0       0       0       0       0       0       0       0       0       0       
      +0       0       0       0
  5719 ;;      Temps:          0       0       0       0       0       0       0       0       0       0       0       0       
      +0       0       0       0
  5720 ;;      Totals:         0       0       0       0       0       0       0       0       0       0       0       0       
      +0       0       0       0
  5721 ;;Total ram usage:        0 bytes
  5722 ;; Hardware stack levels used:    1
  5723 ;; Hardware stack levels required when called:    6
  5724 ;; This function calls:
  5725 ;;		_ECANSetOperationMode
  5726 ;; This function is called by:
  5727 ;;		_main
  5728 ;; This function uses a non-reentrant model
  5729 ;;
  5730                           
  5731                           	psect	text17
  5732  001A2E                     __ptext17:
  5733                           	opt stack 0
  5734  001A2E                     _ECANInitialize:
  5735                           	opt stack 23
  5736                           
  5737                           ;ECANPoll.c: 168: ECANSetOperationMode(ECAN_OP_MODE_CONFIG);
  5738                           
  5739                           ; BSR set to: 0
  5740                           ;incstack = 0
  5741  001A2E  0E80               	movlw	128
  5742  001A30  EC72  F011         	call	_ECANSetOperationMode
  5743                           
  5744                           ;ECANPoll.c: 172: BRGCON1 = ((1-1) << 6) | (2-1);
  5745  001A34  0E01               	movlw	1
  5746  001A36  010E               	movlb	14	; () banked
  5747  001A38  010E               	movlb	14	; () banked
  5748  001A3A  6F43               	movwf	67,b	;volatile
  5749                           
  5750                           ; BSR set to: 14
  5751                           ;ECANPoll.c: 173: BRGCON2 = (0 << 7) | (1 << 6) | ((7-1) << 3) | (1-1);
  5752  001A3C  0E70               	movlw	112
  5753  001A3E  010E               	movlb	14	; () banked
  5754  001A40  010E               	movlb	14	; () banked
  5755  001A42  6F44               	movwf	68,b	;volatile
  5756                           
  5757                           ; BSR set to: 14
  5758                           ;ECANPoll.c: 177: BRGCON3 = (0 << 7) |
  5759                           ;ECANPoll.c: 178: (0 << 6) |
  5760                           ;ECANPoll.c: 179: (1-1);
  5761  001A44  0E00               	movlw	0
  5762  001A46  010E               	movlb	14	; () banked
  5763  001A48  010E               	movlb	14	; () banked
  5764  001A4A  6F45               	movwf	69,b	;volatile
  5765                           
  5766                           ; BSR set to: 14
  5767                           ;ECANPoll.c: 182: CIOCON = 0 << 7 | 0 << 6 | 1 << 5 | 1 << 4;
  5768  001A4C  0E30               	movlw	48
  5769  001A4E  6E70               	movwf	3952,c	;volatile
  5770                           
  5771                           ; BSR set to: 14
  5772                           ;ECANPoll.c: 189: MDSEL1 = 0x00 >> 7;
  5773  001A50  9E72               	bcf	3954,7,c	;volatile
  5774                           
  5775                           ; BSR set to: 14
  5776                           ;ECANPoll.c: 190: MDSEL0 = 0x00 >> 6;
  5777  001A52  9C72               	bcf	3954,6,c	;volatile
  5778                           
  5779                           ; BSR set to: 14
  5780                           ;ECANPoll.c: 195: RXB0CON = (0 << 5) | (0 << 2);
  5781  001A54  0E00               	movlw	0
  5782  001A56  6E60               	movwf	3936,c	;volatile
  5783                           
  5784                           ; BSR set to: 14
  5785                           ;ECANPoll.c: 196: RXB1CON = 0 << 5;
  5786  001A58  0E00               	movlw	0
  5787  001A5A  010F               	movlb	15	; () banked
  5788  001A5C  010F               	movlb	15	; () banked
  5789  001A5E  6F30               	movwf	48,b	;volatile
  5790                           
  5791                           ; BSR set to: 15
  5792                           ;ECANPoll.c: 290: RXF0SIDH = (long)0x0L >> 3L;RXF0SIDL = (long)0x0L << 5L;
  5793  001A60  0E00               	movlw	0
  5794  001A62  010E               	movlb	14	; () banked
  5795  001A64  010E               	movlb	14	; () banked
  5796  001A66  6FE0               	movwf	224,b	;volatile
  5797                           
  5798                           ; BSR set to: 14
  5799  001A68  0E00               	movlw	0
  5800  001A6A  010E               	movlb	14	; () banked
  5801  001A6C  010E               	movlb	14	; () banked
  5802  001A6E  6FE1               	movwf	225,b	;volatile
  5803                           
  5804                           ; BSR set to: 14
  5805                           ;ECANPoll.c: 298: RXF1SIDH = (long)0x0L >> 3L;RXF1SIDL = (long)0x0L << 5L;
  5806  001A70  0E00               	movlw	0
  5807  001A72  010E               	movlb	14	; () banked
  5808  001A74  010E               	movlb	14	; () banked
  5809  001A76  6FE4               	movwf	228,b	;volatile
  5810                           
  5811                           ; BSR set to: 14
  5812  001A78  0E00               	movlw	0
  5813  001A7A  010E               	movlb	14	; () banked
  5814  001A7C  010E               	movlb	14	; () banked
  5815  001A7E  6FE5               	movwf	229,b	;volatile
  5816                           
  5817                           ; BSR set to: 14
  5818                           ;ECANPoll.c: 307: RXF2SIDH = (long)0x0L >> 3L;RXF2SIDL = (long)0x0L << 5L;
  5819  001A80  0E00               	movlw	0
  5820  001A82  010E               	movlb	14	; () banked
  5821  001A84  010E               	movlb	14	; () banked
  5822  001A86  6FE8               	movwf	232,b	;volatile
  5823                           
  5824                           ; BSR set to: 14
  5825  001A88  0E00               	movlw	0
  5826  001A8A  010E               	movlb	14	; () banked
  5827  001A8C  010E               	movlb	14	; () banked
  5828  001A8E  6FE9               	movwf	233,b	;volatile
  5829                           
  5830                           ; BSR set to: 14
  5831                           ;ECANPoll.c: 316: RXF3SIDH = (long)0x0L >> 3L;RXF3SIDL = (long)0x0L << 5L;
  5832  001A90  0E00               	movlw	0
  5833  001A92  010E               	movlb	14	; () banked
  5834  001A94  010E               	movlb	14	; () banked
  5835  001A96  6FEC               	movwf	236,b	;volatile
  5836                           
  5837                           ; BSR set to: 14
  5838  001A98  0E00               	movlw	0
  5839  001A9A  010E               	movlb	14	; () banked
  5840  001A9C  010E               	movlb	14	; () banked
  5841  001A9E  6FED               	movwf	237,b	;volatile
  5842                           
  5843                           ; BSR set to: 14
  5844                           ;ECANPoll.c: 325: RXF4SIDH = (long)0x0L >> 3L;RXF4SIDL = (long)0x0L << 5L;
  5845  001AA0  0E00               	movlw	0
  5846  001AA2  010E               	movlb	14	; () banked
  5847  001AA4  010E               	movlb	14	; () banked
  5848  001AA6  6FF0               	movwf	240,b	;volatile
  5849                           
  5850                           ; BSR set to: 14
  5851  001AA8  0E00               	movlw	0
  5852  001AAA  010E               	movlb	14	; () banked
  5853  001AAC  010E               	movlb	14	; () banked
  5854  001AAE  6FF1               	movwf	241,b	;volatile
  5855                           
  5856                           ; BSR set to: 14
  5857                           ;ECANPoll.c: 333: RXF5SIDH = (long)0x0L >> 3L;RXF5SIDL = (long)0x0L << 5L;
  5858  001AB0  0E00               	movlw	0
  5859  001AB2  010E               	movlb	14	; () banked
  5860  001AB4  010E               	movlb	14	; () banked
  5861  001AB6  6FF4               	movwf	244,b	;volatile
  5862                           
  5863                           ; BSR set to: 14
  5864  001AB8  0E00               	movlw	0
  5865  001ABA  010E               	movlb	14	; () banked
  5866  001ABC  010E               	movlb	14	; () banked
  5867  001ABE  6FF5               	movwf	245,b	;volatile
  5868                           
  5869                           ; BSR set to: 14
  5870                           ;ECANPoll.c: 475: RXM0SIDH = (long)0x0L >> 3L; RXM0SIDL = (long)0x0L << 5L;
  5871  001AC0  0E00               	movlw	0
  5872  001AC2  010E               	movlb	14	; () banked
  5873  001AC4  010E               	movlb	14	; () banked
  5874  001AC6  6FF8               	movwf	248,b	;volatile
  5875                           
  5876                           ; BSR set to: 14
  5877  001AC8  0E00               	movlw	0
  5878  001ACA  010E               	movlb	14	; () banked
  5879  001ACC  010E               	movlb	14	; () banked
  5880  001ACE  6FF9               	movwf	249,b	;volatile
  5881                           
  5882                           ; BSR set to: 14
  5883                           ;ECANPoll.c: 476: RXM0EXIDM = 0;
  5884  001AD0  010E               	movlb	14
  5885  001AD2  010E               	movlb	14	; () banked
  5886  001AD4  97F9               	bcf	249,3,b	;volatile
  5887                           
  5888                           ; BSR set to: 14
  5889                           ;ECANPoll.c: 483: RXM1SIDH = (long)0x0L >> 3L; RXM1SIDL = (long)0x0L << 5L;
  5890  001AD6  0E00               	movlw	0
  5891  001AD8  010E               	movlb	14	; () banked
  5892  001ADA  010E               	movlb	14	; () banked
  5893  001ADC  6FFC               	movwf	252,b	;volatile
  5894                           
  5895                           ; BSR set to: 14
  5896  001ADE  0E00               	movlw	0
  5897  001AE0  010E               	movlb	14	; () banked
  5898  001AE2  010E               	movlb	14	; () banked
  5899  001AE4  6FFD               	movwf	253,b	;volatile
  5900                           
  5901                           ; BSR set to: 14
  5902                           ;ECANPoll.c: 484: RXM1EXIDEN = 0;
  5903  001AE6  010E               	movlb	14
  5904  001AE8  010E               	movlb	14	; () banked
  5905  001AEA  97FD               	bcf	253,3,b	;volatile
  5906                           
  5907                           ;ECANPoll.c: 495: ECANSetOperationMode(0x00);
  5908  001AEC  0E00               	movlw	0
  5909  001AEE  EC72  F011         	call	_ECANSetOperationMode
  5910  001AF2  0012               	return	
  5911  001AF4                     __end_of_ECANInitialize:
  5912                           	opt stack 0
  5913                           prodh	equ	0xFF4
  5914                           prodl	equ	0xFF3
  5915                           intcon	equ	0xFF2
  5916                           postinc0	equ	0xFEE
  5917                           postdec0	equ	0xFED
  5918                           fsr0h	equ	0xFEA
  5919                           fsr0l	equ	0xFE9
  5920                           wreg	equ	0xFE8
  5921                           indf1	equ	0xFE7
  5922                           postinc1	equ	0xFE6
  5923                           fsr1h	equ	0xFE2
  5924                           fsr1l	equ	0xFE1
  5925                           indf2	equ	0xFDF
  5926                           postinc2	equ	0xFDE
  5927                           postdec2	equ	0xFDD
  5928                           plusw2	equ	0xFDB
  5929                           fsr2h	equ	0xFDA
  5930                           fsr2l	equ	0xFD9
  5931                           status	equ	0xFD8
  5932                           
  5933 ;; *************** function _ECANSetOperationMode *****************
  5934 ;; Defined at:
  5935 ;;		line 1012 in file "ECANPoll.c"
  5936 ;; Parameters:    Size  Location     Type
  5937 ;;  mode            1    wreg     enum E19311
  5938 ;; Auto vars:     Size  Location     Type
  5939 ;;  mode            1   14[BANK0 ] enum E19311
  5940 ;; Return value:  Size  Location     Type
  5941 ;;		None               void
  5942 ;; Registers used:
  5943 ;;		wreg, status,2, status,0
  5944 ;; Tracked objects:
  5945 ;;		On entry : 0/0
  5946 ;;		On exit  : 0/0
  5947 ;;		Unchanged: 0/0
  5948 ;; Data sizes:     COMRAM   BANK0   BANK1   BANK2   BANK3   BANK4   BANK5   BANK6   BANK7   BANK8   BANK9  BANK10  BANK1
      +1  BANK12  BANK13  BANK14
  5949 ;;      Params:         0       0       0       0       0       0       0       0       0       0       0       0       
      +0       0       0       0
  5950 ;;      Locals:         0       1       0       0       0       0       0       0       0       0       0       0       
      +0       0       0       0
  5951 ;;      Temps:          0       0       0       0       0       0       0       0       0       0       0       0       
      +0       0       0       0
  5952 ;;      Totals:         0       1       0       0       0       0       0       0       0       0       0       0       
      +0       0       0       0
  5953 ;;Total ram usage:        1 bytes
  5954 ;; Hardware stack levels used:    1
  5955 ;; Hardware stack levels required when called:    5
  5956 ;; This function calls:
  5957 ;;		Nothing
  5958 ;; This function is called by:
  5959 ;;		_ECANInitialize
  5960 ;; This function uses a non-reentrant model
  5961 ;;
  5962                           
  5963                           	psect	text18
  5964  0022E4                     __ptext18:
  5965                           	opt stack 0
  5966  0022E4                     _ECANSetOperationMode:
  5967                           	opt stack 23
  5968                           
  5969                           ;incstack = 0
  5970                           ;ECANSetOperationMode@mode stored from wreg
  5971  0022E4  CFE8 F06E          	movff	wreg,ECANSetOperationMode@mode
  5972                           
  5973                           ;ECANPoll.c: 1014: CANCON &= 0x1F;
  5974  0022E8  0E1F               	movlw	31
  5975  0022EA  166F               	andwf	3951,f,c	;volatile
  5976                           
  5977                           ;ECANPoll.c: 1015: CANCON |= mode;
  5978  0022EC  0100               	movlb	0	; () banked
  5979  0022EE  0100               	movlb	0	; () banked
  5980  0022F0  516E               	movf	ECANSetOperationMode@mode& (0+255),w,b
  5981  0022F2  126F               	iorwf	3951,f,c	;volatile
  5982  0022F4                     l4248:
  5983                           
  5984                           ; BSR set to: 0
  5985  0022F4  506E               	movf	3950,w,c	;volatile
  5986  0022F6  0BE0               	andlw	224
  5987  0022F8  0100               	movlb	0	; () banked
  5988  0022FA  0100               	movlb	0	; () banked
  5989  0022FC  196E               	xorwf	ECANSetOperationMode@mode& (0+255),w,b
  5990  0022FE  B4D8               	btfsc	status,2,c
  5991                           
  5992                           ; BSR set to: 0
  5993                           
  5994                           ; BSR set to: 0
  5995  002300  0012               	return	
  5996  002302  D7F8               	goto	l4248
  5997  002304                     __end_of_ECANSetOperationMode:
  5998                           	opt stack 0
  5999                           prodh	equ	0xFF4
  6000                           prodl	equ	0xFF3
  6001                           intcon	equ	0xFF2
  6002                           postinc0	equ	0xFEE
  6003                           postdec0	equ	0xFED
  6004                           fsr0h	equ	0xFEA
  6005                           fsr0l	equ	0xFE9
  6006                           wreg	equ	0xFE8
  6007                           indf1	equ	0xFE7
  6008                           postinc1	equ	0xFE6
  6009                           fsr1h	equ	0xFE2
  6010                           fsr1l	equ	0xFE1
  6011                           indf2	equ	0xFDF
  6012                           postinc2	equ	0xFDE
  6013                           postdec2	equ	0xFDD
  6014                           plusw2	equ	0xFDB
  6015                           fsr2h	equ	0xFDA
  6016                           fsr2l	equ	0xFD9
  6017                           status	equ	0xFD8
  6018                           
  6019 ;; *************** function _ECANFiltersInit *****************
  6020 ;; Defined at:
  6021 ;;		line 143 in file "Can_HL.c"
  6022 ;; Parameters:    Size  Location     Type
  6023 ;;		None
  6024 ;; Auto vars:     Size  Location     Type
  6025 ;;  mask            2   16[BANK0 ] unsigned int 
  6026 ;; Return value:  Size  Location     Type
  6027 ;;		None               void
  6028 ;; Registers used:
  6029 ;;		wreg, status,2, status,0
  6030 ;; Tracked objects:
  6031 ;;		On entry : 0/0
  6032 ;;		On exit  : 0/0
  6033 ;;		Unchanged: 0/0
  6034 ;; Data sizes:     COMRAM   BANK0   BANK1   BANK2   BANK3   BANK4   BANK5   BANK6   BANK7   BANK8   BANK9  BANK10  BANK1
      +1  BANK12  BANK13  BANK14
  6035 ;;      Params:         0       0       0       0       0       0       0       0       0       0       0       0       
      +0       0       0       0
  6036 ;;      Locals:         0       2       0       0       0       0       0       0       0       0       0       0       
      +0       0       0       0
  6037 ;;      Temps:          0       2       0       0       0       0       0       0       0       0       0       0       
      +0       0       0       0
  6038 ;;      Totals:         0       4       0       0       0       0       0       0       0       0       0       0       
      +0       0       0       0
  6039 ;;Total ram usage:        4 bytes
  6040 ;; Hardware stack levels used:    1
  6041 ;; Hardware stack levels required when called:    5
  6042 ;; This function calls:
  6043 ;;		Nothing
  6044 ;; This function is called by:
  6045 ;;		_main
  6046 ;; This function uses a non-reentrant model
  6047 ;;
  6048                           
  6049                           	psect	text19
  6050  00159E                     __ptext19:
  6051                           	opt stack 0
  6052  00159E                     _ECANFiltersInit:
  6053                           	opt stack 24
  6054                           
  6055                           ;Can_HL.c: 145: unsigned int mask;
  6056                           ;Can_HL.c: 148: RXM0SIDH = 0b11111110;
  6057                           
  6058                           ; BSR set to: 0
  6059                           ;incstack = 0
  6060  00159E  0EFE               	movlw	254
  6061  0015A0  010E               	movlb	14	; () banked
  6062  0015A2  010E               	movlb	14	; () banked
  6063  0015A4  6FF8               	movwf	248,b	;volatile
  6064                           
  6065                           ;Can_HL.c: 149: RXM0SIDL = 0b00000000;
  6066  0015A6  0E00               	movlw	0
  6067  0015A8  010E               	movlb	14	; () banked
  6068  0015AA  010E               	movlb	14	; () banked
  6069  0015AC  6FF9               	movwf	249,b	;volatile
  6070                           
  6071                           ;Can_HL.c: 151: RXM1SIDH = 0b11111110;
  6072  0015AE  0EFE               	movlw	254
  6073  0015B0  010E               	movlb	14	; () banked
  6074  0015B2  010E               	movlb	14	; () banked
  6075  0015B4  6FFC               	movwf	252,b	;volatile
  6076                           
  6077                           ;Can_HL.c: 152: RXM1SIDL = 0b00000000;
  6078  0015B6  0E00               	movlw	0
  6079  0015B8  010E               	movlb	14	; () banked
  6080  0015BA  010E               	movlb	14	; () banked
  6081  0015BC  6FFD               	movwf	253,b	;volatile
  6082                           
  6083                           ;Can_HL.c: 156: mask = (3<<7 | 0<<4 |0000);
  6084  0015BE  0E01               	movlw	1
  6085  0015C0  0100               	movlb	0	; () banked
  6086  0015C2  0100               	movlb	0	; () banked
  6087  0015C4  6F71               	movwf	(ECANFiltersInit@mask+1)& (0+255),b
  6088  0015C6  0E80               	movlw	128
  6089  0015C8  0100               	movlb	0	; () banked
  6090  0015CA  6F70               	movwf	ECANFiltersInit@mask& (0+255),b
  6091                           
  6092                           ; BSR set to: 0
  6093                           ;Can_HL.c: 157: RXF0SIDH = (char) (mask >> 3);
  6094  0015CC  0100               	movlb	0	; () banked
  6095  0015CE  C070  F06E         	movff	ECANFiltersInit@mask,??_ECANFiltersInit
  6096  0015D2  0100               	movlb	0	; () banked
  6097  0015D4  C071  F06F         	movff	ECANFiltersInit@mask+1,??_ECANFiltersInit+1
  6098  0015D8  0100               	movlb	0	; () banked
  6099  0015DA  90D8               	bcf	status,0,c
  6100  0015DC  336F               	rrcf	(??_ECANFiltersInit+1)& (0+255),f,b
  6101  0015DE  336E               	rrcf	??_ECANFiltersInit& (0+255),f,b
  6102  0015E0  0100               	movlb	0	; () banked
  6103  0015E2  90D8               	bcf	status,0,c
  6104  0015E4  336F               	rrcf	(??_ECANFiltersInit+1)& (0+255),f,b
  6105  0015E6  336E               	rrcf	??_ECANFiltersInit& (0+255),f,b
  6106  0015E8  0100               	movlb	0	; () banked
  6107  0015EA  90D8               	bcf	status,0,c
  6108  0015EC  336F               	rrcf	(??_ECANFiltersInit+1)& (0+255),f,b
  6109  0015EE  336E               	rrcf	??_ECANFiltersInit& (0+255),f,b
  6110  0015F0  0100               	movlb	0	; () banked
  6111  0015F2  516E               	movf	??_ECANFiltersInit& (0+255),w,b
  6112  0015F4  010E               	movlb	14	; () banked
  6113  0015F6  010E               	movlb	14	; () banked
  6114  0015F8  6FE0               	movwf	224,b	;volatile
  6115                           
  6116                           ; BSR set to: 14
  6117                           ;Can_HL.c: 158: RXF0SIDL = (char) (mask << 5);
  6118  0015FA  0100               	movlb	0	; () banked
  6119  0015FC  0100               	movlb	0	; () banked
  6120  0015FE  3970               	swapf	ECANFiltersInit@mask& (0+255),w,b
  6121  001600  46E8               	rlncf	wreg,f,c
  6122  001602  0BE0               	andlw	224
  6123  001604  010E               	movlb	14	; () banked
  6124  001606  010E               	movlb	14	; () banked
  6125  001608  6FE1               	movwf	225,b	;volatile
  6126                           
  6127                           ;Can_HL.c: 162: mask = (4<<7 | 0<<4 |0000);
  6128  00160A  0E02               	movlw	2
  6129  00160C  0100               	movlb	0	; () banked
  6130  00160E  0100               	movlb	0	; () banked
  6131  001610  6F71               	movwf	(ECANFiltersInit@mask+1)& (0+255),b
  6132  001612  0E00               	movlw	0
  6133  001614  0100               	movlb	0	; () banked
  6134  001616  6F70               	movwf	ECANFiltersInit@mask& (0+255),b
  6135                           
  6136                           ; BSR set to: 0
  6137                           ;Can_HL.c: 163: RXF1SIDH = (char) (mask >> 3);
  6138  001618  0100               	movlb	0	; () banked
  6139  00161A  C070  F06E         	movff	ECANFiltersInit@mask,??_ECANFiltersInit
  6140  00161E  0100               	movlb	0	; () banked
  6141  001620  C071  F06F         	movff	ECANFiltersInit@mask+1,??_ECANFiltersInit+1
  6142  001624  0100               	movlb	0	; () banked
  6143  001626  90D8               	bcf	status,0,c
  6144  001628  336F               	rrcf	(??_ECANFiltersInit+1)& (0+255),f,b
  6145  00162A  336E               	rrcf	??_ECANFiltersInit& (0+255),f,b
  6146  00162C  0100               	movlb	0	; () banked
  6147  00162E  90D8               	bcf	status,0,c
  6148  001630  336F               	rrcf	(??_ECANFiltersInit+1)& (0+255),f,b
  6149  001632  336E               	rrcf	??_ECANFiltersInit& (0+255),f,b
  6150  001634  0100               	movlb	0	; () banked
  6151  001636  90D8               	bcf	status,0,c
  6152  001638  336F               	rrcf	(??_ECANFiltersInit+1)& (0+255),f,b
  6153  00163A  336E               	rrcf	??_ECANFiltersInit& (0+255),f,b
  6154  00163C  0100               	movlb	0	; () banked
  6155  00163E  516E               	movf	??_ECANFiltersInit& (0+255),w,b
  6156  001640  010E               	movlb	14	; () banked
  6157  001642  010E               	movlb	14	; () banked
  6158  001644  6FE4               	movwf	228,b	;volatile
  6159                           
  6160                           ; BSR set to: 14
  6161                           ;Can_HL.c: 164: RXF1SIDL = (char) (mask << 5);
  6162  001646  0100               	movlb	0	; () banked
  6163  001648  0100               	movlb	0	; () banked
  6164  00164A  3970               	swapf	ECANFiltersInit@mask& (0+255),w,b
  6165  00164C  46E8               	rlncf	wreg,f,c
  6166  00164E  0BE0               	andlw	224
  6167  001650  010E               	movlb	14	; () banked
  6168  001652  010E               	movlb	14	; () banked
  6169  001654  6FE5               	movwf	229,b	;volatile
  6170                           
  6171                           ;Can_HL.c: 168: mask = (5<<7 | 0<<4 |0000);
  6172  001656  0E02               	movlw	2
  6173  001658  0100               	movlb	0	; () banked
  6174  00165A  0100               	movlb	0	; () banked
  6175  00165C  6F71               	movwf	(ECANFiltersInit@mask+1)& (0+255),b
  6176  00165E  0E80               	movlw	128
  6177  001660  0100               	movlb	0	; () banked
  6178  001662  6F70               	movwf	ECANFiltersInit@mask& (0+255),b
  6179                           
  6180                           ; BSR set to: 0
  6181                           ;Can_HL.c: 169: RXF2SIDH = (char) (mask >> 3);
  6182  001664  0100               	movlb	0	; () banked
  6183  001666  C070  F06E         	movff	ECANFiltersInit@mask,??_ECANFiltersInit
  6184  00166A  0100               	movlb	0	; () banked
  6185  00166C  C071  F06F         	movff	ECANFiltersInit@mask+1,??_ECANFiltersInit+1
  6186  001670  0100               	movlb	0	; () banked
  6187  001672  90D8               	bcf	status,0,c
  6188  001674  336F               	rrcf	(??_ECANFiltersInit+1)& (0+255),f,b
  6189  001676  336E               	rrcf	??_ECANFiltersInit& (0+255),f,b
  6190  001678  0100               	movlb	0	; () banked
  6191  00167A  90D8               	bcf	status,0,c
  6192  00167C  336F               	rrcf	(??_ECANFiltersInit+1)& (0+255),f,b
  6193  00167E  336E               	rrcf	??_ECANFiltersInit& (0+255),f,b
  6194  001680  0100               	movlb	0	; () banked
  6195  001682  90D8               	bcf	status,0,c
  6196  001684  336F               	rrcf	(??_ECANFiltersInit+1)& (0+255),f,b
  6197  001686  336E               	rrcf	??_ECANFiltersInit& (0+255),f,b
  6198  001688  0100               	movlb	0	; () banked
  6199  00168A  516E               	movf	??_ECANFiltersInit& (0+255),w,b
  6200  00168C  010E               	movlb	14	; () banked
  6201  00168E  010E               	movlb	14	; () banked
  6202  001690  6FE8               	movwf	232,b	;volatile
  6203                           
  6204                           ; BSR set to: 14
  6205                           ;Can_HL.c: 170: RXF2SIDL = (char) (mask << 5);
  6206  001692  0100               	movlb	0	; () banked
  6207  001694  0100               	movlb	0	; () banked
  6208  001696  3970               	swapf	ECANFiltersInit@mask& (0+255),w,b
  6209  001698  46E8               	rlncf	wreg,f,c
  6210  00169A  0BE0               	andlw	224
  6211  00169C  010E               	movlb	14	; () banked
  6212  00169E  010E               	movlb	14	; () banked
  6213  0016A0  6FE9               	movwf	233,b	;volatile
  6214                           
  6215                           ;Can_HL.c: 174: mask = (6<<7 | 0<<4 |0000);
  6216  0016A2  0E03               	movlw	3
  6217  0016A4  0100               	movlb	0	; () banked
  6218  0016A6  0100               	movlb	0	; () banked
  6219  0016A8  6F71               	movwf	(ECANFiltersInit@mask+1)& (0+255),b
  6220  0016AA  0E00               	movlw	0
  6221  0016AC  0100               	movlb	0	; () banked
  6222  0016AE  6F70               	movwf	ECANFiltersInit@mask& (0+255),b
  6223                           
  6224                           ; BSR set to: 0
  6225                           ;Can_HL.c: 175: RXF3SIDH = (char) (mask >> 3);
  6226  0016B0  0100               	movlb	0	; () banked
  6227  0016B2  C070  F06E         	movff	ECANFiltersInit@mask,??_ECANFiltersInit
  6228  0016B6  0100               	movlb	0	; () banked
  6229  0016B8  C071  F06F         	movff	ECANFiltersInit@mask+1,??_ECANFiltersInit+1
  6230  0016BC  0100               	movlb	0	; () banked
  6231  0016BE  90D8               	bcf	status,0,c
  6232  0016C0  336F               	rrcf	(??_ECANFiltersInit+1)& (0+255),f,b
  6233  0016C2  336E               	rrcf	??_ECANFiltersInit& (0+255),f,b
  6234  0016C4  0100               	movlb	0	; () banked
  6235  0016C6  90D8               	bcf	status,0,c
  6236  0016C8  336F               	rrcf	(??_ECANFiltersInit+1)& (0+255),f,b
  6237  0016CA  336E               	rrcf	??_ECANFiltersInit& (0+255),f,b
  6238  0016CC  0100               	movlb	0	; () banked
  6239  0016CE  90D8               	bcf	status,0,c
  6240  0016D0  336F               	rrcf	(??_ECANFiltersInit+1)& (0+255),f,b
  6241  0016D2  336E               	rrcf	??_ECANFiltersInit& (0+255),f,b
  6242  0016D4  0100               	movlb	0	; () banked
  6243  0016D6  516E               	movf	??_ECANFiltersInit& (0+255),w,b
  6244  0016D8  010E               	movlb	14	; () banked
  6245  0016DA  010E               	movlb	14	; () banked
  6246  0016DC  6FEC               	movwf	236,b	;volatile
  6247                           
  6248                           ; BSR set to: 14
  6249                           ;Can_HL.c: 176: RXF3SIDL = (char) (mask << 5);
  6250  0016DE  0100               	movlb	0	; () banked
  6251  0016E0  0100               	movlb	0	; () banked
  6252  0016E2  3970               	swapf	ECANFiltersInit@mask& (0+255),w,b
  6253  0016E4  46E8               	rlncf	wreg,f,c
  6254  0016E6  0BE0               	andlw	224
  6255  0016E8  010E               	movlb	14	; () banked
  6256  0016EA  010E               	movlb	14	; () banked
  6257  0016EC  6FED               	movwf	237,b	;volatile
  6258                           
  6259                           ;Can_HL.c: 180: RXF4SIDH = 0;
  6260  0016EE  0E00               	movlw	0
  6261  0016F0  010E               	movlb	14	; () banked
  6262  0016F2  010E               	movlb	14	; () banked
  6263  0016F4  6FF0               	movwf	240,b	;volatile
  6264                           
  6265                           ;Can_HL.c: 181: RXF4SIDL = 0;
  6266  0016F6  0E00               	movlw	0
  6267  0016F8  010E               	movlb	14	; () banked
  6268  0016FA  010E               	movlb	14	; () banked
  6269  0016FC  6FF1               	movwf	241,b	;volatile
  6270                           
  6271                           ;Can_HL.c: 182: RXF5SIDH = 0;
  6272  0016FE  0E00               	movlw	0
  6273  001700  010E               	movlb	14	; () banked
  6274  001702  010E               	movlb	14	; () banked
  6275  001704  6FF4               	movwf	244,b	;volatile
  6276                           
  6277                           ;Can_HL.c: 183: RXF5SIDL = 0;
  6278  001706  0E00               	movlw	0
  6279  001708  010E               	movlb	14	; () banked
  6280  00170A  010E               	movlb	14	; () banked
  6281  00170C  6FF5               	movwf	245,b	;volatile
  6282                           
  6283                           ; BSR set to: 14
  6284  00170E  0012               	return	
  6285  001710                     __end_of_ECANFiltersInit:
  6286                           	opt stack 0
  6287                           prodh	equ	0xFF4
  6288                           prodl	equ	0xFF3
  6289                           intcon	equ	0xFF2
  6290                           postinc0	equ	0xFEE
  6291                           postdec0	equ	0xFED
  6292                           fsr0h	equ	0xFEA
  6293                           fsr0l	equ	0xFE9
  6294                           wreg	equ	0xFE8
  6295                           indf1	equ	0xFE7
  6296                           postinc1	equ	0xFE6
  6297                           fsr1h	equ	0xFE2
  6298                           fsr1l	equ	0xFE1
  6299                           indf2	equ	0xFDF
  6300                           postinc2	equ	0xFDE
  6301                           postdec2	equ	0xFDD
  6302                           plusw2	equ	0xFDB
  6303                           fsr2h	equ	0xFDA
  6304                           fsr2l	equ	0xFD9
  6305                           status	equ	0xFD8
  6306                           
  6307 ;; *************** function _ConfigureUSART2 *****************
  6308 ;; Defined at:
  6309 ;;		line 116 in file "system.c"
  6310 ;; Parameters:    Size  Location     Type
  6311 ;;		None
  6312 ;; Auto vars:     Size  Location     Type
  6313 ;;		None
  6314 ;; Return value:  Size  Location     Type
  6315 ;;		None               void
  6316 ;; Registers used:
  6317 ;;		wreg, status,2
  6318 ;; Tracked objects:
  6319 ;;		On entry : 0/0
  6320 ;;		On exit  : 0/0
  6321 ;;		Unchanged: 0/0
  6322 ;; Data sizes:     COMRAM   BANK0   BANK1   BANK2   BANK3   BANK4   BANK5   BANK6   BANK7   BANK8   BANK9  BANK10  BANK1
      +1  BANK12  BANK13  BANK14
  6323 ;;      Params:         0       0       0       0       0       0       0       0       0       0       0       0       
      +0       0       0       0
  6324 ;;      Locals:         0       0       0       0       0       0       0       0       0       0       0       0       
      +0       0       0       0
  6325 ;;      Temps:          0       0       0       0       0       0       0       0       0       0       0       0       
      +0       0       0       0
  6326 ;;      Totals:         0       0       0       0       0       0       0       0       0       0       0       0       
      +0       0       0       0
  6327 ;;Total ram usage:        0 bytes
  6328 ;; Hardware stack levels used:    1
  6329 ;; Hardware stack levels required when called:    5
  6330 ;; This function calls:
  6331 ;;		Nothing
  6332 ;; This function is called by:
  6333 ;;		_main
  6334 ;; This function uses a non-reentrant model
  6335 ;;
  6336                           
  6337                           	psect	text20
  6338  00227A                     __ptext20:
  6339                           	opt stack 0
  6340  00227A                     _ConfigureUSART2:
  6341                           	opt stack 24
  6342                           
  6343                           ;system.c: 122: TXSTA2 = 0;
  6344                           
  6345                           ; BSR set to: 14
  6346                           ;incstack = 0
  6347  00227A  0E00               	movlw	0
  6348  00227C  6EBA               	movwf	4026,c	;volatile
  6349                           
  6350                           ;system.c: 123: RCSTA2 = 0;
  6351  00227E  0E00               	movlw	0
  6352  002280  6EA6               	movwf	4006,c	;volatile
  6353                           
  6354                           ;system.c: 125: TXSTA2bits.SYNC = 0;
  6355  002282  98BA               	bcf	4026,4,c	;volatile
  6356                           
  6357                           ;system.c: 127: TXSTA2bits.TX9 = 0;
  6358  002284  9CBA               	bcf	4026,6,c	;volatile
  6359                           
  6360                           ;system.c: 128: RCSTA2bits.RX9 = 0;
  6361  002286  9CA6               	bcf	4006,6,c	;volatile
  6362                           
  6363                           ;system.c: 130: TXSTA2bits.CSRC = 0;
  6364  002288  9EBA               	bcf	4026,7,c	;volatile
  6365                           
  6366                           ;system.c: 132: RCSTA2bits.CREN = 1;
  6367  00228A  88A6               	bsf	4006,4,c	;volatile
  6368                           
  6369                           ;system.c: 134: TXSTA2bits.BRGH = 0;
  6370  00228C  94BA               	bcf	4026,2,c	;volatile
  6371                           
  6372                           ;system.c: 135: BAUDCON2bits.BRG16 = 0;
  6373  00228E  96B9               	bcf	4025,3,c	;volatile
  6374                           
  6375                           ;system.c: 137: PIE1bits.RC1IE = 1;
  6376  002290  8A9D               	bsf	3997,5,c	;volatile
  6377                           
  6378                           ;system.c: 138: PIE1bits.TX1IE = 0;
  6379  002292  989D               	bcf	3997,4,c	;volatile
  6380                           
  6381                           ;system.c: 140: SPBRG2 = 103;
  6382  002294  0E67               	movlw	103
  6383  002296  6E7B               	movwf	3963,c	;volatile
  6384                           
  6385                           ;system.c: 142: TXSTA2bits.TXEN = 1;
  6386  002298  8ABA               	bsf	4026,5,c	;volatile
  6387                           
  6388                           ;system.c: 143: RCSTA2bits.SPEN = 1;
  6389  00229A  8EA6               	bsf	4006,7,c	;volatile
  6390  00229C  0012               	return	
  6391  00229E                     __end_of_ConfigureUSART2:
  6392                           	opt stack 0
  6393                           prodh	equ	0xFF4
  6394                           prodl	equ	0xFF3
  6395                           intcon	equ	0xFF2
  6396                           postinc0	equ	0xFEE
  6397                           postdec0	equ	0xFED
  6398                           fsr0h	equ	0xFEA
  6399                           fsr0l	equ	0xFE9
  6400                           wreg	equ	0xFE8
  6401                           indf1	equ	0xFE7
  6402                           postinc1	equ	0xFE6
  6403                           fsr1h	equ	0xFE2
  6404                           fsr1l	equ	0xFE1
  6405                           indf2	equ	0xFDF
  6406                           postinc2	equ	0xFDE
  6407                           postdec2	equ	0xFDD
  6408                           plusw2	equ	0xFDB
  6409                           fsr2h	equ	0xFDA
  6410                           fsr2l	equ	0xFD9
  6411                           status	equ	0xFD8
  6412                           
  6413 ;; *************** function _ConfigureUSART1 *****************
  6414 ;; Defined at:
  6415 ;;		line 83 in file "system.c"
  6416 ;; Parameters:    Size  Location     Type
  6417 ;;		None
  6418 ;; Auto vars:     Size  Location     Type
  6419 ;;		None
  6420 ;; Return value:  Size  Location     Type
  6421 ;;		None               void
  6422 ;; Registers used:
  6423 ;;		wreg, status,2
  6424 ;; Tracked objects:
  6425 ;;		On entry : 0/0
  6426 ;;		On exit  : 0/0
  6427 ;;		Unchanged: 0/0
  6428 ;; Data sizes:     COMRAM   BANK0   BANK1   BANK2   BANK3   BANK4   BANK5   BANK6   BANK7   BANK8   BANK9  BANK10  BANK1
      +1  BANK12  BANK13  BANK14
  6429 ;;      Params:         0       0       0       0       0       0       0       0       0       0       0       0       
      +0       0       0       0
  6430 ;;      Locals:         0       0       0       0       0       0       0       0       0       0       0       0       
      +0       0       0       0
  6431 ;;      Temps:          0       0       0       0       0       0       0       0       0       0       0       0       
      +0       0       0       0
  6432 ;;      Totals:         0       0       0       0       0       0       0       0       0       0       0       0       
      +0       0       0       0
  6433 ;;Total ram usage:        0 bytes
  6434 ;; Hardware stack levels used:    1
  6435 ;; Hardware stack levels required when called:    5
  6436 ;; This function calls:
  6437 ;;		Nothing
  6438 ;; This function is called by:
  6439 ;;		_main
  6440 ;; This function uses a non-reentrant model
  6441 ;;
  6442                           
  6443                           	psect	text21
  6444  00229E                     __ptext21:
  6445                           	opt stack 0
  6446  00229E                     _ConfigureUSART1:
  6447                           	opt stack 24
  6448                           
  6449                           ;system.c: 89: TXSTA1 = 0;
  6450                           
  6451                           ;incstack = 0
  6452  00229E  0E00               	movlw	0
  6453  0022A0  6EAC               	movwf	4012,c	;volatile
  6454                           
  6455                           ;system.c: 90: RCSTA1 = 0;
  6456  0022A2  0E00               	movlw	0
  6457  0022A4  6EAB               	movwf	4011,c	;volatile
  6458                           
  6459                           ;system.c: 92: TXSTA1bits.SYNC = 0;
  6460  0022A6  98AC               	bcf	4012,4,c	;volatile
  6461                           
  6462                           ;system.c: 94: TXSTA1bits.TX9 = 0;
  6463  0022A8  9CAC               	bcf	4012,6,c	;volatile
  6464                           
  6465                           ;system.c: 95: RCSTA1bits.RX9 = 0;
  6466  0022AA  9CAB               	bcf	4011,6,c	;volatile
  6467                           
  6468                           ;system.c: 97: TXSTA1bits.CSRC = 0;
  6469  0022AC  9EAC               	bcf	4012,7,c	;volatile
  6470                           
  6471                           ;system.c: 99: RCSTA1bits.CREN = 1;
  6472  0022AE  88AB               	bsf	4011,4,c	;volatile
  6473                           
  6474                           ;system.c: 101: TXSTA1bits.BRGH = 0;
  6475  0022B0  94AC               	bcf	4012,2,c	;volatile
  6476                           
  6477                           ;system.c: 102: BAUDCON1bits.BRG16 = 0;
  6478  0022B2  96A7               	bcf	4007,3,c	;volatile
  6479                           
  6480                           ;system.c: 104: PIE1bits.RC1IE = 1;
  6481  0022B4  8A9D               	bsf	3997,5,c	;volatile
  6482                           
  6483                           ;system.c: 105: PIE1bits.TX1IE = 0;
  6484  0022B6  989D               	bcf	3997,4,c	;volatile
  6485                           
  6486                           ;system.c: 107: SPBRG1 = 103;
  6487  0022B8  0E67               	movlw	103
  6488  0022BA  6EAF               	movwf	4015,c	;volatile
  6489                           
  6490                           ;system.c: 109: TXSTA1bits.TXEN = 1;
  6491  0022BC  8AAC               	bsf	4012,5,c	;volatile
  6492                           
  6493                           ;system.c: 110: RCSTA1bits.SPEN = 1;
  6494  0022BE  8EAB               	bsf	4011,7,c	;volatile
  6495  0022C0  0012               	return	
  6496  0022C2                     __end_of_ConfigureUSART1:
  6497                           	opt stack 0
  6498                           prodh	equ	0xFF4
  6499                           prodl	equ	0xFF3
  6500                           intcon	equ	0xFF2
  6501                           postinc0	equ	0xFEE
  6502                           postdec0	equ	0xFED
  6503                           fsr0h	equ	0xFEA
  6504                           fsr0l	equ	0xFE9
  6505                           wreg	equ	0xFE8
  6506                           indf1	equ	0xFE7
  6507                           postinc1	equ	0xFE6
  6508                           fsr1h	equ	0xFE2
  6509                           fsr1l	equ	0xFE1
  6510                           indf2	equ	0xFDF
  6511                           postinc2	equ	0xFDE
  6512                           postdec2	equ	0xFDD
  6513                           plusw2	equ	0xFDB
  6514                           fsr2h	equ	0xFDA
  6515                           fsr2l	equ	0xFD9
  6516                           status	equ	0xFD8
  6517                           
  6518 ;; *************** function _ConfigureTimers *****************
  6519 ;; Defined at:
  6520 ;;		line 209 in file "system.c"
  6521 ;; Parameters:    Size  Location     Type
  6522 ;;		None
  6523 ;; Auto vars:     Size  Location     Type
  6524 ;;		None
  6525 ;; Return value:  Size  Location     Type
  6526 ;;		None               void
  6527 ;; Registers used:
  6528 ;;		wreg, status,2
  6529 ;; Tracked objects:
  6530 ;;		On entry : 0/0
  6531 ;;		On exit  : 0/0
  6532 ;;		Unchanged: 0/0
  6533 ;; Data sizes:     COMRAM   BANK0   BANK1   BANK2   BANK3   BANK4   BANK5   BANK6   BANK7   BANK8   BANK9  BANK10  BANK1
      +1  BANK12  BANK13  BANK14
  6534 ;;      Params:         0       0       0       0       0       0       0       0       0       0       0       0       
      +0       0       0       0
  6535 ;;      Locals:         0       0       0       0       0       0       0       0       0       0       0       0       
      +0       0       0       0
  6536 ;;      Temps:          0       0       0       0       0       0       0       0       0       0       0       0       
      +0       0       0       0
  6537 ;;      Totals:         0       0       0       0       0       0       0       0       0       0       0       0       
      +0       0       0       0
  6538 ;;Total ram usage:        0 bytes
  6539 ;; Hardware stack levels used:    1
  6540 ;; Hardware stack levels required when called:    5
  6541 ;; This function calls:
  6542 ;;		Nothing
  6543 ;; This function is called by:
  6544 ;;		_main
  6545 ;; This function uses a non-reentrant model
  6546 ;;
  6547                           
  6548                           	psect	text22
  6549  002304                     __ptext22:
  6550                           	opt stack 0
  6551  002304                     _ConfigureTimers:
  6552                           	opt stack 24
  6553                           
  6554                           ;system.c: 211: T0CONbits.T08BIT = 0;
  6555                           
  6556                           ;incstack = 0
  6557  002304  9CD5               	bcf	4053,6,c	;volatile
  6558                           
  6559                           ;system.c: 212: T0CONbits.T0CS = 0;
  6560  002306  9AD5               	bcf	4053,5,c	;volatile
  6561                           
  6562                           ;system.c: 213: T0CONbits.PSA = 0;
  6563  002308  96D5               	bcf	4053,3,c	;volatile
  6564                           
  6565                           ;system.c: 214: T0CONbits.T0PS=6;
  6566  00230A  50D5               	movf	4053,w,c	;volatile
  6567  00230C  0BF8               	andlw	-8
  6568  00230E  0906               	iorlw	6
  6569  002310  6ED5               	movwf	4053,c	;volatile
  6570                           
  6571                           ;system.c: 216: TMR0H = 0xFB;
  6572  002312  0EFB               	movlw	251
  6573  002314  6ED7               	movwf	4055,c	;volatile
  6574                           
  6575                           ;system.c: 217: TMR0L = 0x1E;
  6576  002316  0E1E               	movlw	30
  6577  002318  6ED6               	movwf	4054,c	;volatile
  6578                           
  6579                           ;system.c: 219: T0CONbits.TMR0ON = 1;
  6580  00231A  8ED5               	bsf	4053,7,c	;volatile
  6581  00231C  0012               	return	
  6582  00231E                     __end_of_ConfigureTimers:
  6583                           	opt stack 0
  6584                           prodh	equ	0xFF4
  6585                           prodl	equ	0xFF3
  6586                           intcon	equ	0xFF2
  6587                           postinc0	equ	0xFEE
  6588                           postdec0	equ	0xFED
  6589                           fsr0h	equ	0xFEA
  6590                           fsr0l	equ	0xFE9
  6591                           wreg	equ	0xFE8
  6592                           indf1	equ	0xFE7
  6593                           postinc1	equ	0xFE6
  6594                           fsr1h	equ	0xFE2
  6595                           fsr1l	equ	0xFE1
  6596                           indf2	equ	0xFDF
  6597                           postinc2	equ	0xFDE
  6598                           postdec2	equ	0xFDD
  6599                           plusw2	equ	0xFDB
  6600                           fsr2h	equ	0xFDA
  6601                           fsr2l	equ	0xFD9
  6602                           status	equ	0xFD8
  6603                           
  6604 ;; *************** function _ConfigureSPI *****************
  6605 ;; Defined at:
  6606 ;;		line 163 in file "system.c"
  6607 ;; Parameters:    Size  Location     Type
  6608 ;;		None
  6609 ;; Auto vars:     Size  Location     Type
  6610 ;;		None
  6611 ;; Return value:  Size  Location     Type
  6612 ;;		None               void
  6613 ;; Registers used:
  6614 ;;		wreg, status,2, status,0
  6615 ;; Tracked objects:
  6616 ;;		On entry : 0/0
  6617 ;;		On exit  : 0/0
  6618 ;;		Unchanged: 0/0
  6619 ;; Data sizes:     COMRAM   BANK0   BANK1   BANK2   BANK3   BANK4   BANK5   BANK6   BANK7   BANK8   BANK9  BANK10  BANK1
      +1  BANK12  BANK13  BANK14
  6620 ;;      Params:         0       0       0       0       0       0       0       0       0       0       0       0       
      +0       0       0       0
  6621 ;;      Locals:         0       0       0       0       0       0       0       0       0       0       0       0       
      +0       0       0       0
  6622 ;;      Temps:          0       0       0       0       0       0       0       0       0       0       0       0       
      +0       0       0       0
  6623 ;;      Totals:         0       0       0       0       0       0       0       0       0       0       0       0       
      +0       0       0       0
  6624 ;;Total ram usage:        0 bytes
  6625 ;; Hardware stack levels used:    1
  6626 ;; Hardware stack levels required when called:    5
  6627 ;; This function calls:
  6628 ;;		Nothing
  6629 ;; This function is called by:
  6630 ;;		_main
  6631 ;; This function uses a non-reentrant model
  6632 ;;
  6633                           
  6634                           	psect	text23
  6635  00231E                     __ptext23:
  6636                           	opt stack 0
  6637  00231E                     _ConfigureSPI:
  6638                           	opt stack 24
  6639                           
  6640                           ;system.c: 166: SSPSTAT &= 0x3F;
  6641                           
  6642                           ;incstack = 0
  6643  00231E  0E3F               	movlw	63
  6644  002320  16C7               	andwf	4039,f,c	;volatile
  6645                           
  6646                           ;system.c: 168: SSPCON1bits.SSPM = 0b0010;
  6647  002322  50C6               	movf	4038,w,c	;volatile
  6648  002324  0BF0               	andlw	-16
  6649  002326  0902               	iorlw	2
  6650  002328  6EC6               	movwf	4038,c	;volatile
  6651                           
  6652                           ;system.c: 170: SSPCON1bits.CKP = 0;
  6653  00232A  98C6               	bcf	4038,4,c	;volatile
  6654                           
  6655                           ;system.c: 171: SSPSTATbits.CKE = 1;
  6656  00232C  8CC7               	bsf	4039,6,c	;volatile
  6657                           
  6658                           ;system.c: 173: SSPCON1bits.SSPEN = 1;
  6659  00232E  8AC6               	bsf	4038,5,c	;volatile
  6660  002330  0012               	return	
  6661  002332                     __end_of_ConfigureSPI:
  6662                           	opt stack 0
  6663                           prodh	equ	0xFF4
  6664                           prodl	equ	0xFF3
  6665                           intcon	equ	0xFF2
  6666                           postinc0	equ	0xFEE
  6667                           postdec0	equ	0xFED
  6668                           fsr0h	equ	0xFEA
  6669                           fsr0l	equ	0xFE9
  6670                           wreg	equ	0xFE8
  6671                           indf1	equ	0xFE7
  6672                           postinc1	equ	0xFE6
  6673                           fsr1h	equ	0xFE2
  6674                           fsr1l	equ	0xFE1
  6675                           indf2	equ	0xFDF
  6676                           postinc2	equ	0xFDE
  6677                           postdec2	equ	0xFDD
  6678                           plusw2	equ	0xFDB
  6679                           fsr2h	equ	0xFDA
  6680                           fsr2l	equ	0xFD9
  6681                           status	equ	0xFD8
  6682                           
  6683 ;; *************** function _ConfigureOscillator *****************
  6684 ;; Defined at:
  6685 ;;		line 34 in file "system.c"
  6686 ;; Parameters:    Size  Location     Type
  6687 ;;		None
  6688 ;; Auto vars:     Size  Location     Type
  6689 ;;		None
  6690 ;; Return value:  Size  Location     Type
  6691 ;;		None               void
  6692 ;; Registers used:
  6693 ;;		wreg, status,2
  6694 ;; Tracked objects:
  6695 ;;		On entry : 0/0
  6696 ;;		On exit  : 0/0
  6697 ;;		Unchanged: 0/0
  6698 ;; Data sizes:     COMRAM   BANK0   BANK1   BANK2   BANK3   BANK4   BANK5   BANK6   BANK7   BANK8   BANK9  BANK10  BANK1
      +1  BANK12  BANK13  BANK14
  6699 ;;      Params:         0       0       0       0       0       0       0       0       0       0       0       0       
      +0       0       0       0
  6700 ;;      Locals:         0       0       0       0       0       0       0       0       0       0       0       0       
      +0       0       0       0
  6701 ;;      Temps:          0       0       0       0       0       0       0       0       0       0       0       0       
      +0       0       0       0
  6702 ;;      Totals:         0       0       0       0       0       0       0       0       0       0       0       0       
      +0       0       0       0
  6703 ;;Total ram usage:        0 bytes
  6704 ;; Hardware stack levels used:    1
  6705 ;; Hardware stack levels required when called:    5
  6706 ;; This function calls:
  6707 ;;		Nothing
  6708 ;; This function is called by:
  6709 ;;		_main
  6710 ;; This function uses a non-reentrant model
  6711 ;;
  6712                           
  6713                           	psect	text24
  6714  002340                     __ptext24:
  6715                           	opt stack 0
  6716  002340                     _ConfigureOscillator:
  6717                           	opt stack 24
  6718                           
  6719                           ;system.c: 37: OSCCONbits.IDLEN=1;
  6720                           
  6721                           ;incstack = 0
  6722  002340  8ED3               	bsf	4051,7,c	;volatile
  6723                           
  6724                           ;system.c: 38: OSCCONbits.IRCF=0;
  6725  002342  98D3               	bcf	4051,4,c	;volatile
  6726  002344  9AD3               	bcf	4051,5,c	;volatile
  6727  002346  9CD3               	bcf	4051,6,c	;volatile
  6728                           
  6729                           ;system.c: 39: OSCCONbits.SCS=0;
  6730  002348  0EFC               	movlw	-4
  6731  00234A  16D3               	andwf	4051,f,c	;volatile
  6732  00234C  0012               	return	
  6733  00234E                     __end_of_ConfigureOscillator:
  6734                           	opt stack 0
  6735                           prodh	equ	0xFF4
  6736                           prodl	equ	0xFF3
  6737                           intcon	equ	0xFF2
  6738                           postinc0	equ	0xFEE
  6739                           postdec0	equ	0xFED
  6740                           fsr0h	equ	0xFEA
  6741                           fsr0l	equ	0xFE9
  6742                           wreg	equ	0xFE8
  6743                           indf1	equ	0xFE7
  6744                           postinc1	equ	0xFE6
  6745                           fsr1h	equ	0xFE2
  6746                           fsr1l	equ	0xFE1
  6747                           indf2	equ	0xFDF
  6748                           postinc2	equ	0xFDE
  6749                           postdec2	equ	0xFDD
  6750                           plusw2	equ	0xFDB
  6751                           fsr2h	equ	0xFDA
  6752                           fsr2l	equ	0xFD9
  6753                           status	equ	0xFD8
  6754                           
  6755 ;; *************** function _ConfigureInterrupts *****************
  6756 ;; Defined at:
  6757 ;;		line 177 in file "system.c"
  6758 ;; Parameters:    Size  Location     Type
  6759 ;;		None
  6760 ;; Auto vars:     Size  Location     Type
  6761 ;;		None
  6762 ;; Return value:  Size  Location     Type
  6763 ;;		None               void
  6764 ;; Registers used:
  6765 ;;		wreg, status,2
  6766 ;; Tracked objects:
  6767 ;;		On entry : 0/0
  6768 ;;		On exit  : 0/0
  6769 ;;		Unchanged: 0/0
  6770 ;; Data sizes:     COMRAM   BANK0   BANK1   BANK2   BANK3   BANK4   BANK5   BANK6   BANK7   BANK8   BANK9  BANK10  BANK1
      +1  BANK12  BANK13  BANK14
  6771 ;;      Params:         0       0       0       0       0       0       0       0       0       0       0       0       
      +0       0       0       0
  6772 ;;      Locals:         0       0       0       0       0       0       0       0       0       0       0       0       
      +0       0       0       0
  6773 ;;      Temps:          0       0       0       0       0       0       0       0       0       0       0       0       
      +0       0       0       0
  6774 ;;      Totals:         0       0       0       0       0       0       0       0       0       0       0       0       
      +0       0       0       0
  6775 ;;Total ram usage:        0 bytes
  6776 ;; Hardware stack levels used:    1
  6777 ;; Hardware stack levels required when called:    5
  6778 ;; This function calls:
  6779 ;;		Nothing
  6780 ;; This function is called by:
  6781 ;;		_main
  6782 ;; This function uses a non-reentrant model
  6783 ;;
  6784                           
  6785                           	psect	text25
  6786  002150                     __ptext25:
  6787                           	opt stack 0
  6788  002150                     _ConfigureInterrupts:
  6789                           	opt stack 24
  6790                           
  6791                           ;system.c: 181: RCONbits.IPEN = 1;
  6792                           
  6793                           ;incstack = 0
  6794  002150  8ED0               	bsf	4048,7,c	;volatile
  6795                           
  6796                           ;system.c: 183: INTCON = 0b00100000;
  6797  002152  0E20               	movlw	32
  6798  002154  6EF2               	movwf	intcon,c	;volatile
  6799                           
  6800                           ;system.c: 184: INTCON2 = 0b11111000;
  6801  002156  0EF8               	movlw	248
  6802  002158  6EF1               	movwf	intcon2,c	;volatile
  6803                           
  6804                           ;system.c: 185: INTCON3 = 0b00000000;
  6805  00215A  0E00               	movlw	0
  6806  00215C  6EF0               	movwf	intcon3,c	;volatile
  6807                           
  6808                           ;system.c: 187: PIR1 = 0;
  6809  00215E  0E00               	movlw	0
  6810  002160  6E9E               	movwf	3998,c	;volatile
  6811                           
  6812                           ;system.c: 188: PIR2 = 0;
  6813  002162  0E00               	movlw	0
  6814  002164  6EA1               	movwf	4001,c	;volatile
  6815                           
  6816                           ;system.c: 189: PIR3 = 0;
  6817  002166  0E00               	movlw	0
  6818  002168  6EA4               	movwf	4004,c	;volatile
  6819                           
  6820                           ;system.c: 190: PIR4 = 0;
  6821  00216A  0E00               	movlw	0
  6822  00216C  6EB7               	movwf	4023,c	;volatile
  6823                           
  6824                           ;system.c: 191: PIR5 = 0;
  6825  00216E  0E00               	movlw	0
  6826  002170  6E77               	movwf	3959,c	;volatile
  6827                           
  6828                           ;system.c: 193: PIE1 = 0b00100000;
  6829  002172  0E20               	movlw	32
  6830  002174  6E9D               	movwf	3997,c	;volatile
  6831                           
  6832                           ;system.c: 194: PIE2 = 0;
  6833  002176  0E00               	movlw	0
  6834  002178  6EA0               	movwf	4000,c	;volatile
  6835                           
  6836                           ;system.c: 195: PIE3 = 0b00100000;
  6837  00217A  0E20               	movlw	32
  6838  00217C  6EA3               	movwf	4003,c	;volatile
  6839                           
  6840                           ;system.c: 196: PIE4 = 0;
  6841  00217E  0E00               	movlw	0
  6842  002180  6EB6               	movwf	4022,c	;volatile
  6843                           
  6844                           ;system.c: 197: PIE5 = 0b00000011;
  6845  002182  0E03               	movlw	3
  6846  002184  6E76               	movwf	3958,c	;volatile
  6847                           
  6848                           ;system.c: 199: IPR1= 0 ;
  6849  002186  0E00               	movlw	0
  6850  002188  6E9F               	movwf	3999,c	;volatile
  6851                           
  6852                           ;system.c: 200: IPR2= 0 ;
  6853  00218A  0E00               	movlw	0
  6854  00218C  6EA2               	movwf	4002,c	;volatile
  6855                           
  6856                           ;system.c: 201: IPR3= 0 ;
  6857  00218E  0E00               	movlw	0
  6858  002190  6EA5               	movwf	4005,c	;volatile
  6859                           
  6860                           ;system.c: 202: IPR4= 0 ;
  6861  002192  0E00               	movlw	0
  6862  002194  6EB8               	movwf	4024,c	;volatile
  6863                           
  6864                           ;system.c: 203: IPR5= 0b00000011 ;
  6865  002196  0E03               	movlw	3
  6866  002198  6E78               	movwf	3960,c	;volatile
  6867                           
  6868                           ;system.c: 205: INTCONbits.GIE=1;
  6869  00219A  8EF2               	bsf	intcon,7,c	;volatile
  6870                           
  6871                           ;system.c: 206: INTCONbits.PEIE=1;
  6872  00219C  8CF2               	bsf	intcon,6,c	;volatile
  6873  00219E  0012               	return	
  6874  0021A0                     __end_of_ConfigureInterrupts:
  6875                           	opt stack 0
  6876                           prodh	equ	0xFF4
  6877                           prodl	equ	0xFF3
  6878                           intcon	equ	0xFF2
  6879                           intcon2	equ	0xFF1
  6880                           intcon3	equ	0xFF0
  6881                           postinc0	equ	0xFEE
  6882                           postdec0	equ	0xFED
  6883                           fsr0h	equ	0xFEA
  6884                           fsr0l	equ	0xFE9
  6885                           wreg	equ	0xFE8
  6886                           indf1	equ	0xFE7
  6887                           postinc1	equ	0xFE6
  6888                           fsr1h	equ	0xFE2
  6889                           fsr1l	equ	0xFE1
  6890                           indf2	equ	0xFDF
  6891                           postinc2	equ	0xFDE
  6892                           postdec2	equ	0xFDD
  6893                           plusw2	equ	0xFDB
  6894                           fsr2h	equ	0xFDA
  6895                           fsr2l	equ	0xFD9
  6896                           status	equ	0xFD8
  6897                           
  6898 ;; *************** function _ConfigureGPIO *****************
  6899 ;; Defined at:
  6900 ;;		line 45 in file "system.c"
  6901 ;; Parameters:    Size  Location     Type
  6902 ;;		None
  6903 ;; Auto vars:     Size  Location     Type
  6904 ;;		None
  6905 ;; Return value:  Size  Location     Type
  6906 ;;		None               void
  6907 ;; Registers used:
  6908 ;;		wreg, status,2
  6909 ;; Tracked objects:
  6910 ;;		On entry : 0/0
  6911 ;;		On exit  : 0/0
  6912 ;;		Unchanged: 0/0
  6913 ;; Data sizes:     COMRAM   BANK0   BANK1   BANK2   BANK3   BANK4   BANK5   BANK6   BANK7   BANK8   BANK9  BANK10  BANK1
      +1  BANK12  BANK13  BANK14
  6914 ;;      Params:         0       0       0       0       0       0       0       0       0       0       0       0       
      +0       0       0       0
  6915 ;;      Locals:         0       0       0       0       0       0       0       0       0       0       0       0       
      +0       0       0       0
  6916 ;;      Temps:          0       0       0       0       0       0       0       0       0       0       0       0       
      +0       0       0       0
  6917 ;;      Totals:         0       0       0       0       0       0       0       0       0       0       0       0       
      +0       0       0       0
  6918 ;;Total ram usage:        0 bytes
  6919 ;; Hardware stack levels used:    1
  6920 ;; Hardware stack levels required when called:    5
  6921 ;; This function calls:
  6922 ;;		Nothing
  6923 ;; This function is called by:
  6924 ;;		_main
  6925 ;; This function uses a non-reentrant model
  6926 ;;
  6927                           
  6928                           	psect	text26
  6929  0020F4                     __ptext26:
  6930                           	opt stack 0
  6931  0020F4                     _ConfigureGPIO:
  6932                           	opt stack 24
  6933                           
  6934                           ;system.c: 48: ADCON0bits.CHS = 0;
  6935                           
  6936                           ;incstack = 0
  6937  0020F4  94C2               	bcf	4034,2,c	;volatile
  6938  0020F6  96C2               	bcf	4034,3,c	;volatile
  6939  0020F8  98C2               	bcf	4034,4,c	;volatile
  6940  0020FA  9AC2               	bcf	4034,5,c	;volatile
  6941  0020FC  9CC2               	bcf	4034,6,c	;volatile
  6942                           
  6943                           ;system.c: 49: ADCON0bits.ADON=1;
  6944  0020FE  80C2               	bsf	4034,0,c	;volatile
  6945                           
  6946                           ;system.c: 50: ADCON1 = 0;
  6947  002100  0E00               	movlw	0
  6948  002102  6EC1               	movwf	4033,c	;volatile
  6949                           
  6950                           ;system.c: 52: ADCON2bits.ADFM = 1;
  6951  002104  8EC0               	bsf	4032,7,c	;volatile
  6952                           
  6953                           ;system.c: 53: ADCON2bits.ACQT = 0x07;
  6954  002106  86C0               	bsf	4032,3,c	;volatile
  6955  002108  88C0               	bsf	4032,4,c	;volatile
  6956  00210A  8AC0               	bsf	4032,5,c	;volatile
  6957                           
  6958                           ;system.c: 54: ADCON2bits.ADCS = 0x06;
  6959  00210C  50C0               	movf	4032,w,c	;volatile
  6960  00210E  0BF8               	andlw	-8
  6961  002110  0906               	iorlw	6
  6962  002112  6EC0               	movwf	4032,c	;volatile
  6963                           
  6964                           ;system.c: 56: ANCON0 = 0b0000001;
  6965  002114  0E01               	movlw	1
  6966  002116  010F               	movlb	15	; () banked
  6967  002118  010F               	movlb	15	; () banked
  6968  00211A  6F5D               	movwf	93,b	;volatile
  6969                           
  6970                           ;system.c: 57: ANCON1 = 0;
  6971  00211C  0E00               	movlw	0
  6972  00211E  010F               	movlb	15	; () banked
  6973  002120  010F               	movlb	15	; () banked
  6974  002122  6F5C               	movwf	92,b	;volatile
  6975                           
  6976                           ;system.c: 59: TRISA = 0b00000101;
  6977  002124  0E05               	movlw	5
  6978  002126  6E92               	movwf	3986,c	;volatile
  6979                           
  6980                           ;system.c: 60: LATA = 0b00001000;
  6981  002128  0E08               	movlw	8
  6982  00212A  6E89               	movwf	3977,c	;volatile
  6983                           
  6984                           ;system.c: 62: TRISB = 0b11111011;
  6985  00212C  0EFB               	movlw	251
  6986  00212E  6E93               	movwf	3987,c	;volatile
  6987                           
  6988                           ; BSR set to: 15
  6989                           ;system.c: 63: LATBbits.LATB2=1;
  6990  002130  848A               	bsf	3978,2,c	;volatile
  6991                           
  6992                           ;system.c: 65: TRISC = 0b10010000;
  6993  002132  0E90               	movlw	144
  6994  002134  6E94               	movwf	3988,c	;volatile
  6995                           
  6996                           ; BSR set to: 15
  6997                           ;system.c: 66: LATCbits.LATC2 = 1;
  6998  002136  848B               	bsf	3979,2,c	;volatile
  6999                           
  7000                           ; BSR set to: 15
  7001                           ;system.c: 67: LATCbits.LATC1 = 1;
  7002  002138  828B               	bsf	3979,1,c	;volatile
  7003                           
  7004                           ; BSR set to: 15
  7005                           ;system.c: 68: LATCbits.LATC0 = 1;
  7006  00213A  808B               	bsf	3979,0,c	;volatile
  7007                           
  7008                           ;system.c: 70: TRISD = 0b10111000;
  7009  00213C  0EB8               	movlw	184
  7010  00213E  6E95               	movwf	3989,c	;volatile
  7011                           
  7012                           ; BSR set to: 15
  7013                           ;system.c: 71: LATDbits.LATD0=0;
  7014  002140  908C               	bcf	3980,0,c	;volatile
  7015                           
  7016                           ; BSR set to: 15
  7017                           ;system.c: 72: LATDbits.LATD1=0;
  7018  002142  928C               	bcf	3980,1,c	;volatile
  7019                           
  7020                           ; BSR set to: 15
  7021                           ;system.c: 73: LATDbits.LATD2=1;
  7022  002144  848C               	bsf	3980,2,c	;volatile
  7023                           
  7024                           ;system.c: 75: TRISE = 0b00000000;
  7025  002146  0E00               	movlw	0
  7026  002148  6E96               	movwf	3990,c	;volatile
  7027                           
  7028                           ; BSR set to: 15
  7029                           ;system.c: 76: LATEbits.LATE0 = 1;
  7030  00214A  808D               	bsf	3981,0,c	;volatile
  7031                           
  7032                           ; BSR set to: 15
  7033                           ;system.c: 77: LATEbits.LATE1 = 1;
  7034  00214C  828D               	bsf	3981,1,c	;volatile
  7035                           
  7036                           ; BSR set to: 15
  7037  00214E  0012               	return	
  7038  002150                     __end_of_ConfigureGPIO:
  7039                           	opt stack 0
  7040                           prodh	equ	0xFF4
  7041                           prodl	equ	0xFF3
  7042                           intcon	equ	0xFF2
  7043                           intcon2	equ	0xFF1
  7044                           intcon3	equ	0xFF0
  7045                           postinc0	equ	0xFEE
  7046                           postdec0	equ	0xFED
  7047                           fsr0h	equ	0xFEA
  7048                           fsr0l	equ	0xFE9
  7049                           wreg	equ	0xFE8
  7050                           indf1	equ	0xFE7
  7051                           postinc1	equ	0xFE6
  7052                           fsr1h	equ	0xFE2
  7053                           fsr1l	equ	0xFE1
  7054                           indf2	equ	0xFDF
  7055                           postinc2	equ	0xFDE
  7056                           postdec2	equ	0xFDD
  7057                           plusw2	equ	0xFDB
  7058                           fsr2h	equ	0xFDA
  7059                           fsr2l	equ	0xFD9
  7060                           status	equ	0xFD8
  7061                           
  7062 ;; *************** function _CANTxFifoInit *****************
  7063 ;; Defined at:
  7064 ;;		line 27 in file "Can_HL.c"
  7065 ;; Parameters:    Size  Location     Type
  7066 ;;		None
  7067 ;; Auto vars:     Size  Location     Type
  7068 ;;		None
  7069 ;; Return value:  Size  Location     Type
  7070 ;;		None               void
  7071 ;; Registers used:
  7072 ;;		status,2
  7073 ;; Tracked objects:
  7074 ;;		On entry : 0/0
  7075 ;;		On exit  : 0/0
  7076 ;;		Unchanged: 0/0
  7077 ;; Data sizes:     COMRAM   BANK0   BANK1   BANK2   BANK3   BANK4   BANK5   BANK6   BANK7   BANK8   BANK9  BANK10  BANK1
      +1  BANK12  BANK13  BANK14
  7078 ;;      Params:         0       0       0       0       0       0       0       0       0       0       0       0       
      +0       0       0       0
  7079 ;;      Locals:         0       0       0       0       0       0       0       0       0       0       0       0       
      +0       0       0       0
  7080 ;;      Temps:          0       1       0       0       0       0       0       0       0       0       0       0       
      +0       0       0       0
  7081 ;;      Totals:         0       1       0       0       0       0       0       0       0       0       0       0       
      +0       0       0       0
  7082 ;;Total ram usage:        1 bytes
  7083 ;; Hardware stack levels used:    1
  7084 ;; Hardware stack levels required when called:    5
  7085 ;; This function calls:
  7086 ;;		Nothing
  7087 ;; This function is called by:
  7088 ;;		_main
  7089 ;; This function uses a non-reentrant model
  7090 ;;
  7091                           
  7092                           	psect	text27
  7093  0021A0                     __ptext27:
  7094                           	opt stack 0
  7095  0021A0                     _CANTxFifoInit:
  7096                           	opt stack 24
  7097                           
  7098                           ;Can_HL.c: 29: CANTxFifo.FifoEmpty=1;
  7099                           
  7100                           ; BSR set to: 15
  7101                           ;incstack = 0
  7102  0021A0  0100               	movlb	0	; () banked
  7103  0021A2  6F6E               	movwf	??_CANTxFifoInit& (0+255),b
  7104  0021A4  0E01               	movlw	1
  7105  0021A6  0101               	movlb	1	; () banked
  7106  0021A8  0101               	movlb	1	; () banked
  7107  0021AA  6F8F               	movwf	(_CANTxFifo+143)& (0+255),b
  7108  0021AC  0100               	movlb	0	; () banked
  7109  0021AE  516E               	movf	??_CANTxFifoInit& (0+255),w,b
  7110                           
  7111                           ;Can_HL.c: 30: CANTxFifo.Fifofull=0;
  7112  0021B0  0100               	movlb	0	; () banked
  7113  0021B2  6F6E               	movwf	??_CANTxFifoInit& (0+255),b
  7114  0021B4  0E00               	movlw	0
  7115  0021B6  0101               	movlb	1	; () banked
  7116  0021B8  0101               	movlb	1	; () banked
  7117  0021BA  6F8E               	movwf	(_CANTxFifo+142)& (0+255),b
  7118  0021BC  0100               	movlb	0	; () banked
  7119  0021BE  516E               	movf	??_CANTxFifoInit& (0+255),w,b
  7120                           
  7121                           ;Can_HL.c: 31: CANTxFifo.LowIndex=0;
  7122  0021C0  0100               	movlb	0	; () banked
  7123  0021C2  6F6E               	movwf	??_CANTxFifoInit& (0+255),b
  7124  0021C4  0E00               	movlw	0
  7125  0021C6  0101               	movlb	1	; () banked
  7126  0021C8  0101               	movlb	1	; () banked
  7127  0021CA  6F8C               	movwf	(_CANTxFifo+140)& (0+255),b
  7128  0021CC  0100               	movlb	0	; () banked
  7129  0021CE  516E               	movf	??_CANTxFifoInit& (0+255),w,b
  7130                           
  7131                           ;Can_HL.c: 32: CANTxFifo.HighIndex=0;
  7132  0021D0  0100               	movlb	0	; () banked
  7133  0021D2  6F6E               	movwf	??_CANTxFifoInit& (0+255),b
  7134  0021D4  0E00               	movlw	0
  7135  0021D6  0101               	movlb	1	; () banked
  7136  0021D8  0101               	movlb	1	; () banked
  7137  0021DA  6F8D               	movwf	(_CANTxFifo+141)& (0+255),b
  7138  0021DC  0100               	movlb	0	; () banked
  7139  0021DE  516E               	movf	??_CANTxFifoInit& (0+255),w,b
  7140                           
  7141                           ; BSR set to: 0
  7142  0021E0  0012               	return	
  7143  0021E2                     __end_of_CANTxFifoInit:
  7144                           	opt stack 0
  7145                           prodh	equ	0xFF4
  7146                           prodl	equ	0xFF3
  7147                           intcon	equ	0xFF2
  7148                           intcon2	equ	0xFF1
  7149                           intcon3	equ	0xFF0
  7150                           postinc0	equ	0xFEE
  7151                           postdec0	equ	0xFED
  7152                           fsr0h	equ	0xFEA
  7153                           fsr0l	equ	0xFE9
  7154                           wreg	equ	0xFE8
  7155                           indf1	equ	0xFE7
  7156                           postinc1	equ	0xFE6
  7157                           fsr1h	equ	0xFE2
  7158                           fsr1l	equ	0xFE1
  7159                           indf2	equ	0xFDF
  7160                           postinc2	equ	0xFDE
  7161                           postdec2	equ	0xFDD
  7162                           plusw2	equ	0xFDB
  7163                           fsr2h	equ	0xFDA
  7164                           fsr2l	equ	0xFD9
  7165                           status	equ	0xFD8
  7166                           
  7167 ;; *************** function _CANRxFifoInit *****************
  7168 ;; Defined at:
  7169 ;;		line 35 in file "Can_HL.c"
  7170 ;; Parameters:    Size  Location     Type
  7171 ;;		None
  7172 ;; Auto vars:     Size  Location     Type
  7173 ;;		None
  7174 ;; Return value:  Size  Location     Type
  7175 ;;		None               void
  7176 ;; Registers used:
  7177 ;;		status,2
  7178 ;; Tracked objects:
  7179 ;;		On entry : 0/0
  7180 ;;		On exit  : 0/0
  7181 ;;		Unchanged: 0/0
  7182 ;; Data sizes:     COMRAM   BANK0   BANK1   BANK2   BANK3   BANK4   BANK5   BANK6   BANK7   BANK8   BANK9  BANK10  BANK1
      +1  BANK12  BANK13  BANK14
  7183 ;;      Params:         0       0       0       0       0       0       0       0       0       0       0       0       
      +0       0       0       0
  7184 ;;      Locals:         0       0       0       0       0       0       0       0       0       0       0       0       
      +0       0       0       0
  7185 ;;      Temps:          0       1       0       0       0       0       0       0       0       0       0       0       
      +0       0       0       0
  7186 ;;      Totals:         0       1       0       0       0       0       0       0       0       0       0       0       
      +0       0       0       0
  7187 ;;Total ram usage:        1 bytes
  7188 ;; Hardware stack levels used:    1
  7189 ;; Hardware stack levels required when called:    5
  7190 ;; This function calls:
  7191 ;;		Nothing
  7192 ;; This function is called by:
  7193 ;;		_main
  7194 ;; This function uses a non-reentrant model
  7195 ;;
  7196                           
  7197                           	psect	text28
  7198  0021E2                     __ptext28:
  7199                           	opt stack 0
  7200  0021E2                     _CANRxFifoInit:
  7201                           	opt stack 24
  7202                           
  7203                           ;Can_HL.c: 37: CANRxFifo.FifoEmpty=1;
  7204                           
  7205                           ; BSR set to: 0
  7206                           ;incstack = 0
  7207  0021E2  0100               	movlb	0	; () banked
  7208  0021E4  6F6E               	movwf	??_CANRxFifoInit& (0+255),b
  7209  0021E6  0E01               	movlw	1
  7210  0021E8  0102               	movlb	2	; () banked
  7211  0021EA  0102               	movlb	2	; () banked
  7212  0021EC  6F8F               	movwf	(_CANRxFifo+143)& (0+255),b
  7213  0021EE  0100               	movlb	0	; () banked
  7214  0021F0  516E               	movf	??_CANRxFifoInit& (0+255),w,b
  7215                           
  7216                           ;Can_HL.c: 38: CANRxFifo.Fifofull=0;
  7217  0021F2  0100               	movlb	0	; () banked
  7218  0021F4  6F6E               	movwf	??_CANRxFifoInit& (0+255),b
  7219  0021F6  0E00               	movlw	0
  7220  0021F8  0102               	movlb	2	; () banked
  7221  0021FA  0102               	movlb	2	; () banked
  7222  0021FC  6F8E               	movwf	(_CANRxFifo+142)& (0+255),b
  7223  0021FE  0100               	movlb	0	; () banked
  7224  002200  516E               	movf	??_CANRxFifoInit& (0+255),w,b
  7225                           
  7226                           ;Can_HL.c: 39: CANRxFifo.LowIndex=0;
  7227  002202  0100               	movlb	0	; () banked
  7228  002204  6F6E               	movwf	??_CANRxFifoInit& (0+255),b
  7229  002206  0E00               	movlw	0
  7230  002208  0102               	movlb	2	; () banked
  7231  00220A  0102               	movlb	2	; () banked
  7232  00220C  6F8C               	movwf	(_CANRxFifo+140)& (0+255),b
  7233  00220E  0100               	movlb	0	; () banked
  7234  002210  516E               	movf	??_CANRxFifoInit& (0+255),w,b
  7235                           
  7236                           ;Can_HL.c: 40: CANRxFifo.HighIndex=0;
  7237  002212  0100               	movlb	0	; () banked
  7238  002214  6F6E               	movwf	??_CANRxFifoInit& (0+255),b
  7239  002216  0E00               	movlw	0
  7240  002218  0102               	movlb	2	; () banked
  7241  00221A  0102               	movlb	2	; () banked
  7242  00221C  6F8D               	movwf	(_CANRxFifo+141)& (0+255),b
  7243  00221E  0100               	movlb	0	; () banked
  7244  002220  516E               	movf	??_CANRxFifoInit& (0+255),w,b
  7245                           
  7246                           ; BSR set to: 0
  7247  002222  0012               	return	
  7248  002224                     __end_of_CANRxFifoInit:
  7249                           	opt stack 0
  7250                           prodh	equ	0xFF4
  7251                           prodl	equ	0xFF3
  7252                           intcon	equ	0xFF2
  7253                           intcon2	equ	0xFF1
  7254                           intcon3	equ	0xFF0
  7255                           postinc0	equ	0xFEE
  7256                           postdec0	equ	0xFED
  7257                           fsr0h	equ	0xFEA
  7258                           fsr0l	equ	0xFE9
  7259                           wreg	equ	0xFE8
  7260                           indf1	equ	0xFE7
  7261                           postinc1	equ	0xFE6
  7262                           fsr1h	equ	0xFE2
  7263                           fsr1l	equ	0xFE1
  7264                           indf2	equ	0xFDF
  7265                           postinc2	equ	0xFDE
  7266                           postdec2	equ	0xFDD
  7267                           plusw2	equ	0xFDB
  7268                           fsr2h	equ	0xFDA
  7269                           fsr2l	equ	0xFD9
  7270                           status	equ	0xFD8
  7271                           
  7272 ;; *************** function _low_isr *****************
  7273 ;; Defined at:
  7274 ;;		line 70 in file "interrupts.c"
  7275 ;; Parameters:    Size  Location     Type
  7276 ;;		None
  7277 ;; Auto vars:     Size  Location     Type
  7278 ;;  temp            1   19[COMRAM] unsigned char 
  7279 ;; Return value:  Size  Location     Type
  7280 ;;		None               void
  7281 ;; Registers used:
  7282 ;;		wreg, fsr2l, fsr2h, status,2, status,0, prodl, prodh, cstack
  7283 ;; Tracked objects:
  7284 ;;		On entry : 0/0
  7285 ;;		On exit  : 0/0
  7286 ;;		Unchanged: 0/0
  7287 ;; Data sizes:     COMRAM   BANK0   BANK1   BANK2   BANK3   BANK4   BANK5   BANK6   BANK7   BANK8   BANK9  BANK10  BANK1
      +1  BANK12  BANK13  BANK14
  7288 ;;      Params:         0       0       0       0       0       0       0       0       0       0       0       0       
      +0       0       0       0
  7289 ;;      Locals:         1       0       0       0       0       0       0       0       0       0       0       0       
      +0       0       0       0
  7290 ;;      Temps:         17       0       0       0       0       0       0       0       0       0       0       0       
      +0       0       0       0
  7291 ;;      Totals:        18       0       0       0       0       0       0       0       0       0       0       0       
      +0       0       0       0
  7292 ;;Total ram usage:       18 bytes
  7293 ;; Hardware stack levels used:    1
  7294 ;; Hardware stack levels required when called:    4
  7295 ;; This function calls:
  7296 ;;		_PutUSART1RxFifo
  7297 ;;		_PutUSART2RxFifo
  7298 ;; This function is called by:
  7299 ;;		Interrupt level 1
  7300 ;; This function uses a non-reentrant model
  7301 ;;
  7302                           
  7303                           	psect	intcodelo
  7304  000018                     __pintcodelo:
  7305                           	opt stack 0
  7306  000018                     _low_isr:
  7307                           	opt stack 22
  7308                           
  7309                           ; BSR set to: 0
  7310                           ;incstack = 0
  7311  000018  CFD8 F003          	movff	status,??_low_isr
  7312  00001C  CFE8 F004          	movff	wreg,??_low_isr+1
  7313  000020  CFE0 F005          	movff	bsr,??_low_isr+2
  7314  000024  CFFA F006          	movff	pclath,??_low_isr+3
  7315  000028  CFFB F007          	movff	pclatu,??_low_isr+4
  7316  00002C  CFE9 F008          	movff	fsr0l,??_low_isr+5
  7317  000030  CFEA F009          	movff	fsr0h,??_low_isr+6
  7318  000034  CFE1 F00A          	movff	fsr1l,??_low_isr+7
  7319  000038  CFE2 F00B          	movff	fsr1h,??_low_isr+8
  7320  00003C  CFD9 F00C          	movff	fsr2l,??_low_isr+9
  7321  000040  CFDA F00D          	movff	fsr2h,??_low_isr+10
  7322  000044  CFF3 F00E          	movff	prodl,??_low_isr+11
  7323  000048  CFF4 F00F          	movff	prodh,??_low_isr+12
  7324  00004C  CFF6 F010          	movff	tblptrl,??_low_isr+13
  7325  000050  CFF7 F011          	movff	tblptrh,??_low_isr+14
  7326  000054  CFF8 F012          	movff	tblptru,??_low_isr+15
  7327  000058  CFF5 F013          	movff	tablat,??_low_isr+16
  7328                           
  7329                           ;interrupts.c: 80: unsigned char temp;
  7330                           ;interrupts.c: 82: if(INTCONbits.TMR0IF)
  7331  00005C  A4F2               	btfss	intcon,2,c	;volatile
  7332  00005E  D008               	goto	i1l3340
  7333                           
  7334                           ;interrupts.c: 83: {
  7335                           ;interrupts.c: 84: INTCONbits.TMR0IF=0;
  7336  000060  94F2               	bcf	intcon,2,c	;volatile
  7337                           
  7338                           ;interrupts.c: 86: TickCounter.AccelTick_ms ++;
  7339  000062  2A3B               	incf	_TickCounter,f,c
  7340                           
  7341                           ;interrupts.c: 87: TickCounter.GyroTick_ms ++;
  7342  000064  2A3C               	incf	_TickCounter+1,f,c
  7343                           
  7344                           ;interrupts.c: 88: TickCounter.MagnetTick_ms ++;
  7345  000066  2A3D               	incf	_TickCounter+2,f,c
  7346                           
  7347                           ;interrupts.c: 90: TMR0H = 0xFB;
  7348  000068  0EFB               	movlw	251
  7349  00006A  6ED7               	movwf	4055,c	;volatile
  7350                           
  7351                           ;interrupts.c: 91: TMR0L = 0x1E;
  7352  00006C  0E1E               	movlw	30
  7353  00006E  6ED6               	movwf	4054,c	;volatile
  7354  000070                     i1l3340:
  7355                           
  7356                           ;interrupts.c: 93: }
  7357                           ;interrupts.c: 95: if(PIR1bits.RCIF)
  7358  000070  AA9E               	btfss	3998,5,c	;volatile
  7359  000072  D00A               	goto	i1l40
  7360                           
  7361                           ;interrupts.c: 96: {
  7362                           ;interrupts.c: 97: PIR1bits.RCIF=0;
  7363  000074  9A9E               	bcf	3998,5,c	;volatile
  7364                           
  7365                           ;interrupts.c: 98: temp= RCREG;
  7366  000076  CFAE F014          	movff	4014,low_isr@temp	;volatile
  7367                           
  7368                           ;interrupts.c: 99: PutUSART1RxFifo(temp);
  7369  00007A  5014               	movf	low_isr@temp,w,c
  7370  00007C  EC40  F010         	call	_PutUSART1RxFifo
  7371                           
  7372                           ;interrupts.c: 100: if(RCSTA1bits.OERR)
  7373  000080  A2AB               	btfss	4011,1,c	;volatile
  7374  000082  D002               	goto	i1l40
  7375                           
  7376                           ;interrupts.c: 101: {
  7377                           ;interrupts.c: 102: RCSTA1bits.CREN=0;
  7378  000084  98AB               	bcf	4011,4,c	;volatile
  7379                           
  7380                           ;interrupts.c: 103: RCSTA1bits.CREN=1;
  7381  000086  88AB               	bsf	4011,4,c	;volatile
  7382  000088                     i1l40:
  7383                           
  7384                           ;interrupts.c: 104: }
  7385                           ;interrupts.c: 105: }
  7386                           ;interrupts.c: 107: if(PIR3bits.RC2IF)
  7387  000088  AAA4               	btfss	4004,5,c	;volatile
  7388  00008A  D00A               	goto	i1l44
  7389                           
  7390                           ;interrupts.c: 108: {
  7391                           ;interrupts.c: 109: PIR3bits.RC2IF=0;
  7392  00008C  9AA4               	bcf	4004,5,c	;volatile
  7393                           
  7394                           ;interrupts.c: 110: temp= RCREG2;
  7395  00008E  CF7A F014          	movff	3962,low_isr@temp	;volatile
  7396                           
  7397                           ;interrupts.c: 111: PutUSART2RxFifo(temp);
  7398  000092  5014               	movf	low_isr@temp,w,c
  7399  000094  EC06  F010         	call	_PutUSART2RxFifo
  7400                           
  7401                           ;interrupts.c: 112: if(RCSTA2bits.OERR)
  7402  000098  A2A6               	btfss	4006,1,c	;volatile
  7403  00009A  D002               	goto	i1l44
  7404                           
  7405                           ;interrupts.c: 113: {
  7406                           ;interrupts.c: 114: RCSTA2bits.CREN=0;
  7407  00009C  98A6               	bcf	4006,4,c	;volatile
  7408                           
  7409                           ;interrupts.c: 115: RCSTA2bits.CREN=1;
  7410  00009E  88A6               	bsf	4006,4,c	;volatile
  7411  0000A0                     i1l44:
  7412  0000A0  C013  FFF5         	movff	??_low_isr+16,tablat
  7413  0000A4  C012  FFF8         	movff	??_low_isr+15,tblptru
  7414  0000A8  C011  FFF7         	movff	??_low_isr+14,tblptrh
  7415  0000AC  C010  FFF6         	movff	??_low_isr+13,tblptrl
  7416  0000B0  C00F  FFF4         	movff	??_low_isr+12,prodh
  7417  0000B4  C00E  FFF3         	movff	??_low_isr+11,prodl
  7418  0000B8  C00D  FFDA         	movff	??_low_isr+10,fsr2h
  7419  0000BC  C00C  FFD9         	movff	??_low_isr+9,fsr2l
  7420  0000C0  C00B  FFE2         	movff	??_low_isr+8,fsr1h
  7421  0000C4  C00A  FFE1         	movff	??_low_isr+7,fsr1l
  7422  0000C8  C009  FFEA         	movff	??_low_isr+6,fsr0h
  7423  0000CC  C008  FFE9         	movff	??_low_isr+5,fsr0l
  7424  0000D0  C007  FFFB         	movff	??_low_isr+4,pclatu
  7425  0000D4  C006  FFFA         	movff	??_low_isr+3,pclath
  7426  0000D8  C005  FFE0         	movff	??_low_isr+2,bsr
  7427  0000DC  C004  FFE8         	movff	??_low_isr+1,wreg
  7428  0000E0  C003  FFD8         	movff	??_low_isr,status
  7429  0000E4  0010               	retfie	
  7430  0000E6                     __end_of_low_isr:
  7431                           	opt stack 0
  7432                           pclatu	equ	0xFFB
  7433                           pclath	equ	0xFFA
  7434                           tblptru	equ	0xFF8
  7435                           tblptrh	equ	0xFF7
  7436                           tblptrl	equ	0xFF6
  7437                           tablat	equ	0xFF5
  7438                           prodh	equ	0xFF4
  7439                           prodl	equ	0xFF3
  7440                           intcon	equ	0xFF2
  7441                           intcon2	equ	0xFF1
  7442                           intcon3	equ	0xFF0
  7443                           postinc0	equ	0xFEE
  7444                           postdec0	equ	0xFED
  7445                           fsr0h	equ	0xFEA
  7446                           fsr0l	equ	0xFE9
  7447                           wreg	equ	0xFE8
  7448                           indf1	equ	0xFE7
  7449                           postinc1	equ	0xFE6
  7450                           fsr1h	equ	0xFE2
  7451                           fsr1l	equ	0xFE1
  7452                           bsr	equ	0xFE0
  7453                           indf2	equ	0xFDF
  7454                           postinc2	equ	0xFDE
  7455                           postdec2	equ	0xFDD
  7456                           plusw2	equ	0xFDB
  7457                           fsr2h	equ	0xFDA
  7458                           fsr2l	equ	0xFD9
  7459                           status	equ	0xFD8
  7460                           
  7461 ;; *************** function _PutUSART2RxFifo *****************
  7462 ;; Defined at:
  7463 ;;		line 341 in file "system.c"
  7464 ;; Parameters:    Size  Location     Type
  7465 ;;  ByteToWrite     1    wreg     unsigned char 
  7466 ;; Auto vars:     Size  Location     Type
  7467 ;;  ByteToWrite     1    1[COMRAM] unsigned char 
  7468 ;; Return value:  Size  Location     Type
  7469 ;;		None               void
  7470 ;; Registers used:
  7471 ;;		wreg, fsr2l, fsr2h, status,2, status,0, prodl, prodh
  7472 ;; Tracked objects:
  7473 ;;		On entry : 0/0
  7474 ;;		On exit  : 0/0
  7475 ;;		Unchanged: 0/0
  7476 ;; Data sizes:     COMRAM   BANK0   BANK1   BANK2   BANK3   BANK4   BANK5   BANK6   BANK7   BANK8   BANK9  BANK10  BANK1
      +1  BANK12  BANK13  BANK14
  7477 ;;      Params:         0       0       0       0       0       0       0       0       0       0       0       0       
      +0       0       0       0
  7478 ;;      Locals:         1       0       0       0       0       0       0       0       0       0       0       0       
      +0       0       0       0
  7479 ;;      Temps:          1       0       0       0       0       0       0       0       0       0       0       0       
      +0       0       0       0
  7480 ;;      Totals:         2       0       0       0       0       0       0       0       0       0       0       0       
      +0       0       0       0
  7481 ;;Total ram usage:        2 bytes
  7482 ;; Hardware stack levels used:    1
  7483 ;; Hardware stack levels required when called:    3
  7484 ;; This function calls:
  7485 ;;		Nothing
  7486 ;; This function is called by:
  7487 ;;		_low_isr
  7488 ;; This function uses a non-reentrant model
  7489 ;;
  7490                           
  7491                           	psect	text30
  7492  00200C                     __ptext30:
  7493                           	opt stack 0
  7494  00200C                     _PutUSART2RxFifo:
  7495                           	opt stack 22
  7496                           
  7497                           ;incstack = 0
  7498                           ;PutUSART2RxFifo@ByteToWrite stored from wreg
  7499  00200C  CFE8 F002          	movff	wreg,PutUSART2RxFifo@ByteToWrite
  7500                           
  7501                           ;system.c: 344: INTCONbits.GIE=0;
  7502  002010  9EF2               	bcf	intcon,7,c	;volatile
  7503                           
  7504                           ;system.c: 346: if(!USART2RxFifo.Fifofull)
  7505  002012  0100               	movlb	0	; () banked
  7506  002014  0100               	movlb	0	; () banked
  7507  002016  67C2               	tstfsz	(_USART2RxFifo+12)& (0+255),b
  7508  002018  D031               	goto	i1l2410
  7509                           
  7510                           ; BSR set to: 0
  7511                           ;system.c: 347: {
  7512                           ;system.c: 348: USART2RxFifo.USARTMsg[USART2RxFifo.HighIndex] = ByteToWrite;
  7513  00201A  0100               	movlb	0	; () banked
  7514  00201C  0100               	movlb	0	; () banked
  7515  00201E  51C1               	movf	(_USART2RxFifo+11)& (0+255),w,b
  7516  002020  0D01               	mullw	1
  7517  002022  0100               	movlb	0	; () banked
  7518  002024  0EB6               	movlw	low _USART2RxFifo
  7519  002026  24F3               	addwf	prodl,w,c
  7520  002028  6ED9               	movwf	fsr2l,c
  7521  00202A  0100               	movlb	0	; () banked
  7522  00202C  0E00               	movlw	high _USART2RxFifo
  7523  00202E  20F4               	addwfc	prodh,w,c
  7524  002030  6EDA               	movwf	fsr2h,c
  7525  002032  C002  FFDF         	movff	PutUSART2RxFifo@ByteToWrite,indf2
  7526                           
  7527                           ; BSR set to: 0
  7528                           ;system.c: 349: USART2RxFifo.FifoEmpty=0;
  7529  002036  6E01               	movwf	??_PutUSART2RxFifo& (0+255),c
  7530  002038  0E00               	movlw	0
  7531  00203A  0100               	movlb	0	; () banked
  7532  00203C  0100               	movlb	0	; () banked
  7533  00203E  6FC3               	movwf	(_USART2RxFifo+13)& (0+255),b
  7534  002040  5001               	movf	??_PutUSART2RxFifo& (0+255),w,c
  7535                           
  7536                           ; BSR set to: 0
  7537                           ;system.c: 350: USART2RxFifo.HighIndex++;
  7538  002042  0100               	movlb	0	; () banked
  7539  002044  0100               	movlb	0	; () banked
  7540  002046  2BC1               	incf	(_USART2RxFifo+11)& (0+255),f,b
  7541                           
  7542                           ; BSR set to: 0
  7543                           ;system.c: 352: if(USART2RxFifo.HighIndex==(10))
  7544  002048  0100               	movlb	0	; () banked
  7545  00204A  0100               	movlb	0	; () banked
  7546  00204C  51C1               	movf	(_USART2RxFifo+11)& (0+255),w,b
  7547  00204E  0A0A               	xorlw	10
  7548  002050  A4D8               	btfss	status,2,c
  7549  002052  D006               	goto	i1l2406
  7550                           
  7551                           ; BSR set to: 0
  7552                           ;system.c: 353: USART2RxFifo.HighIndex=0;
  7553  002054  6E01               	movwf	??_PutUSART2RxFifo& (0+255),c
  7554  002056  0E00               	movlw	0
  7555  002058  0100               	movlb	0	; () banked
  7556  00205A  0100               	movlb	0	; () banked
  7557  00205C  6FC1               	movwf	(_USART2RxFifo+11)& (0+255),b
  7558  00205E  5001               	movf	??_PutUSART2RxFifo& (0+255),w,c
  7559  002060                     i1l2406:
  7560                           
  7561                           ; BSR set to: 0
  7562                           ;system.c: 355: if(USART2RxFifo.HighIndex==USART2RxFifo.LowIndex)
  7563  002060  0100               	movlb	0	; () banked
  7564  002062  0100               	movlb	0	; () banked
  7565  002064  51C0               	movf	(_USART2RxFifo+10)& (0+255),w,b
  7566  002066  0100               	movlb	0	; () banked
  7567  002068  EE20  F0C1         	lfsr	2,_USART2RxFifo+11
  7568  00206C  62DF               	cpfseq	indf2,c
  7569  00206E  D006               	goto	i1l2410
  7570                           
  7571                           ; BSR set to: 0
  7572                           ;system.c: 356: USART2RxFifo.Fifofull=1;
  7573  002070  6E01               	movwf	??_PutUSART2RxFifo& (0+255),c
  7574  002072  0E01               	movlw	1
  7575  002074  0100               	movlb	0	; () banked
  7576  002076  0100               	movlb	0	; () banked
  7577  002078  6FC2               	movwf	(_USART2RxFifo+12)& (0+255),b
  7578  00207A  5001               	movf	??_PutUSART2RxFifo& (0+255),w,c
  7579  00207C                     i1l2410:
  7580                           
  7581                           ; BSR set to: 0
  7582                           ;system.c: 357: }
  7583                           ;system.c: 359: INTCONbits.GIE=1;
  7584  00207C  8EF2               	bsf	intcon,7,c	;volatile
  7585                           
  7586                           ; BSR set to: 0
  7587  00207E  0012               	return	
  7588  002080                     __end_of_PutUSART2RxFifo:
  7589                           	opt stack 0
  7590                           pclatu	equ	0xFFB
  7591                           pclath	equ	0xFFA
  7592                           tblptru	equ	0xFF8
  7593                           tblptrh	equ	0xFF7
  7594                           tblptrl	equ	0xFF6
  7595                           tablat	equ	0xFF5
  7596                           prodh	equ	0xFF4
  7597                           prodl	equ	0xFF3
  7598                           intcon	equ	0xFF2
  7599                           intcon2	equ	0xFF1
  7600                           intcon3	equ	0xFF0
  7601                           postinc0	equ	0xFEE
  7602                           postdec0	equ	0xFED
  7603                           fsr0h	equ	0xFEA
  7604                           fsr0l	equ	0xFE9
  7605                           wreg	equ	0xFE8
  7606                           indf1	equ	0xFE7
  7607                           postinc1	equ	0xFE6
  7608                           fsr1h	equ	0xFE2
  7609                           fsr1l	equ	0xFE1
  7610                           bsr	equ	0xFE0
  7611                           indf2	equ	0xFDF
  7612                           postinc2	equ	0xFDE
  7613                           postdec2	equ	0xFDD
  7614                           plusw2	equ	0xFDB
  7615                           fsr2h	equ	0xFDA
  7616                           fsr2l	equ	0xFD9
  7617                           status	equ	0xFD8
  7618                           
  7619 ;; *************** function _PutUSART1RxFifo *****************
  7620 ;; Defined at:
  7621 ;;		line 291 in file "system.c"
  7622 ;; Parameters:    Size  Location     Type
  7623 ;;  ByteToWrite     1    wreg     unsigned char 
  7624 ;; Auto vars:     Size  Location     Type
  7625 ;;  ByteToWrite     1    1[COMRAM] unsigned char 
  7626 ;; Return value:  Size  Location     Type
  7627 ;;		None               void
  7628 ;; Registers used:
  7629 ;;		wreg, fsr2l, fsr2h, status,2, status,0, prodl, prodh
  7630 ;; Tracked objects:
  7631 ;;		On entry : 0/0
  7632 ;;		On exit  : 0/0
  7633 ;;		Unchanged: 0/0
  7634 ;; Data sizes:     COMRAM   BANK0   BANK1   BANK2   BANK3   BANK4   BANK5   BANK6   BANK7   BANK8   BANK9  BANK10  BANK1
      +1  BANK12  BANK13  BANK14
  7635 ;;      Params:         0       0       0       0       0       0       0       0       0       0       0       0       
      +0       0       0       0
  7636 ;;      Locals:         1       0       0       0       0       0       0       0       0       0       0       0       
      +0       0       0       0
  7637 ;;      Temps:          1       0       0       0       0       0       0       0       0       0       0       0       
      +0       0       0       0
  7638 ;;      Totals:         2       0       0       0       0       0       0       0       0       0       0       0       
      +0       0       0       0
  7639 ;;Total ram usage:        2 bytes
  7640 ;; Hardware stack levels used:    1
  7641 ;; Hardware stack levels required when called:    3
  7642 ;; This function calls:
  7643 ;;		Nothing
  7644 ;; This function is called by:
  7645 ;;		_low_isr
  7646 ;; This function uses a non-reentrant model
  7647 ;;
  7648                           
  7649                           	psect	text31
  7650  002080                     __ptext31:
  7651                           	opt stack 0
  7652  002080                     _PutUSART1RxFifo:
  7653                           	opt stack 22
  7654                           
  7655                           ; BSR set to: 0
  7656                           ;incstack = 0
  7657                           ;PutUSART1RxFifo@ByteToWrite stored from wreg
  7658  002080  CFE8 F002          	movff	wreg,PutUSART1RxFifo@ByteToWrite
  7659                           
  7660                           ;system.c: 293: INTCONbits.GIE=0;
  7661  002084  9EF2               	bcf	intcon,7,c	;volatile
  7662                           
  7663                           ;system.c: 295: if(!USART1RxFifo.Fifofull)
  7664  002086  0100               	movlb	0	; () banked
  7665  002088  0100               	movlb	0	; () banked
  7666  00208A  67B4               	tstfsz	(_USART1RxFifo+12)& (0+255),b
  7667  00208C  D031               	goto	i1l2392
  7668                           
  7669                           ; BSR set to: 0
  7670                           ;system.c: 296: {
  7671                           ;system.c: 297: USART1RxFifo.USARTMsg[USART1RxFifo.HighIndex] = ByteToWrite;
  7672  00208E  0100               	movlb	0	; () banked
  7673  002090  0100               	movlb	0	; () banked
  7674  002092  51B3               	movf	(_USART1RxFifo+11)& (0+255),w,b
  7675  002094  0D01               	mullw	1
  7676  002096  0100               	movlb	0	; () banked
  7677  002098  0EA8               	movlw	low _USART1RxFifo
  7678  00209A  24F3               	addwf	prodl,w,c
  7679  00209C  6ED9               	movwf	fsr2l,c
  7680  00209E  0100               	movlb	0	; () banked
  7681  0020A0  0E00               	movlw	high _USART1RxFifo
  7682  0020A2  20F4               	addwfc	prodh,w,c
  7683  0020A4  6EDA               	movwf	fsr2h,c
  7684  0020A6  C002  FFDF         	movff	PutUSART1RxFifo@ByteToWrite,indf2
  7685                           
  7686                           ; BSR set to: 0
  7687                           ;system.c: 298: USART1RxFifo.FifoEmpty=0;
  7688  0020AA  6E01               	movwf	??_PutUSART1RxFifo& (0+255),c
  7689  0020AC  0E00               	movlw	0
  7690  0020AE  0100               	movlb	0	; () banked
  7691  0020B0  0100               	movlb	0	; () banked
  7692  0020B2  6FB5               	movwf	(_USART1RxFifo+13)& (0+255),b
  7693  0020B4  5001               	movf	??_PutUSART1RxFifo& (0+255),w,c
  7694                           
  7695                           ; BSR set to: 0
  7696                           ;system.c: 299: USART1RxFifo.HighIndex++;
  7697  0020B6  0100               	movlb	0	; () banked
  7698  0020B8  0100               	movlb	0	; () banked
  7699  0020BA  2BB3               	incf	(_USART1RxFifo+11)& (0+255),f,b
  7700                           
  7701                           ; BSR set to: 0
  7702                           ;system.c: 301: if(USART1RxFifo.HighIndex==(10))
  7703  0020BC  0100               	movlb	0	; () banked
  7704  0020BE  0100               	movlb	0	; () banked
  7705  0020C0  51B3               	movf	(_USART1RxFifo+11)& (0+255),w,b
  7706  0020C2  0A0A               	xorlw	10
  7707  0020C4  A4D8               	btfss	status,2,c
  7708  0020C6  D006               	goto	i1l2388
  7709                           
  7710                           ; BSR set to: 0
  7711                           ;system.c: 302: USART1RxFifo.HighIndex=0;
  7712  0020C8  6E01               	movwf	??_PutUSART1RxFifo& (0+255),c
  7713  0020CA  0E00               	movlw	0
  7714  0020CC  0100               	movlb	0	; () banked
  7715  0020CE  0100               	movlb	0	; () banked
  7716  0020D0  6FB3               	movwf	(_USART1RxFifo+11)& (0+255),b
  7717  0020D2  5001               	movf	??_PutUSART1RxFifo& (0+255),w,c
  7718  0020D4                     i1l2388:
  7719                           
  7720                           ; BSR set to: 0
  7721                           ;system.c: 304: if(USART1RxFifo.HighIndex==USART1RxFifo.LowIndex)
  7722  0020D4  0100               	movlb	0	; () banked
  7723  0020D6  0100               	movlb	0	; () banked
  7724  0020D8  51B2               	movf	(_USART1RxFifo+10)& (0+255),w,b
  7725  0020DA  0100               	movlb	0	; () banked
  7726  0020DC  EE20  F0B3         	lfsr	2,_USART1RxFifo+11
  7727  0020E0  62DF               	cpfseq	indf2,c
  7728  0020E2  D006               	goto	i1l2392
  7729                           
  7730                           ; BSR set to: 0
  7731                           ;system.c: 305: USART1RxFifo.Fifofull=1;
  7732  0020E4  6E01               	movwf	??_PutUSART1RxFifo& (0+255),c
  7733  0020E6  0E01               	movlw	1
  7734  0020E8  0100               	movlb	0	; () banked
  7735  0020EA  0100               	movlb	0	; () banked
  7736  0020EC  6FB4               	movwf	(_USART1RxFifo+12)& (0+255),b
  7737  0020EE  5001               	movf	??_PutUSART1RxFifo& (0+255),w,c
  7738  0020F0                     i1l2392:
  7739                           
  7740                           ; BSR set to: 0
  7741                           ;system.c: 306: }
  7742                           ;system.c: 307: INTCONbits.GIE=1;
  7743  0020F0  8EF2               	bsf	intcon,7,c	;volatile
  7744                           
  7745                           ; BSR set to: 0
  7746  0020F2  0012               	return	
  7747  0020F4                     __end_of_PutUSART1RxFifo:
  7748                           	opt stack 0
  7749                           pclatu	equ	0xFFB
  7750                           pclath	equ	0xFFA
  7751                           tblptru	equ	0xFF8
  7752                           tblptrh	equ	0xFF7
  7753                           tblptrl	equ	0xFF6
  7754                           tablat	equ	0xFF5
  7755                           prodh	equ	0xFF4
  7756                           prodl	equ	0xFF3
  7757                           intcon	equ	0xFF2
  7758                           intcon2	equ	0xFF1
  7759                           intcon3	equ	0xFF0
  7760                           postinc0	equ	0xFEE
  7761                           postdec0	equ	0xFED
  7762                           fsr0h	equ	0xFEA
  7763                           fsr0l	equ	0xFE9
  7764                           wreg	equ	0xFE8
  7765                           indf1	equ	0xFE7
  7766                           postinc1	equ	0xFE6
  7767                           fsr1h	equ	0xFE2
  7768                           fsr1l	equ	0xFE1
  7769                           bsr	equ	0xFE0
  7770                           indf2	equ	0xFDF
  7771                           postinc2	equ	0xFDE
  7772                           postdec2	equ	0xFDD
  7773                           plusw2	equ	0xFDB
  7774                           fsr2h	equ	0xFDA
  7775                           fsr2l	equ	0xFD9
  7776                           status	equ	0xFD8
  7777                           
  7778 ;; *************** function _high_isr *****************
  7779 ;; Defined at:
  7780 ;;		line 35 in file "interrupts.c"
  7781 ;; Parameters:    Size  Location     Type
  7782 ;;		None
  7783 ;; Auto vars:     Size  Location     Type
  7784 ;;  CANRxNewMess   14    0[BANK0 ] struct CANRxMsg
  7785 ;; Return value:  Size  Location     Type
  7786 ;;		None               void
  7787 ;; Registers used:
  7788 ;;		wreg, fsr0l, fsr0h, fsr1l, fsr1h, fsr1l, fsr1h, fsr2l, fsr2h, status,2, status,0, pclat, btemp, btemp+1, btemp+2, bt
      +emp+3, btemp+4, btemp+5, btemp+6, btemp+7, btemp+8, btemp+9, btemp+10, btemp+11, tosl, structret, tblptrl, tblptrh, tblp
      +tru, prodl, prodh, bsr, cstack
  7789 ;; Tracked objects:
  7790 ;;		On entry : 0/0
  7791 ;;		On exit  : 0/0
  7792 ;;		Unchanged: 0/0
  7793 ;; Data sizes:     COMRAM   BANK0   BANK1   BANK2   BANK3   BANK4   BANK5   BANK6   BANK7   BANK8   BANK9  BANK10  BANK1
      +1  BANK12  BANK13  BANK14
  7794 ;;      Params:         0       0       0       0       0       0       0       0       0       0       0       0       
      +0       0       0       0
  7795 ;;      Locals:         0      14       0       0       0       0       0       0       0       0       0       0       
      +0       0       0       0
  7796 ;;      Temps:         14       0       0       0       0       0       0       0       0       0       0       0       
      +0       0       0       0
  7797 ;;      Totals:        14      14       0       0       0       0       0       0       0       0       0       0       
      +0       0       0       0
  7798 ;;Total ram usage:       28 bytes
  7799 ;; Hardware stack levels used:    1
  7800 ;; Hardware stack levels required when called:    2
  7801 ;; This function calls:
  7802 ;;		_ECANReceiveMessage
  7803 ;;		_PutCANRxFifo
  7804 ;; This function is called by:
  7805 ;;		Interrupt level 2
  7806 ;; This function uses a non-reentrant model
  7807 ;;
  7808                           
  7809                           	psect	intcode
  7810  000008                     __pintcode:
  7811                           	opt stack 0
  7812  000008                     _high_isr:
  7813                           	opt stack 22
  7814                           
  7815                           ; BSR set to: 0
  7816                           ;incstack = 0
  7817  000008  CFFA F02D          	movff	pclath,??_high_isr
  7818  00000C  CFFB F02E          	movff	pclatu,??_high_isr+1
  7819  000010  EF7A  F00D         	goto	int_func
  7820                           pclatu	equ	0xFFB
  7821                           pclath	equ	0xFFA
  7822                           tblptru	equ	0xFF8
  7823                           tblptrh	equ	0xFF7
  7824                           tblptrl	equ	0xFF6
  7825                           tablat	equ	0xFF5
  7826                           prodh	equ	0xFF4
  7827                           prodl	equ	0xFF3
  7828                           intcon	equ	0xFF2
  7829                           intcon2	equ	0xFF1
  7830                           intcon3	equ	0xFF0
  7831                           postinc0	equ	0xFEE
  7832                           postdec0	equ	0xFED
  7833                           fsr0h	equ	0xFEA
  7834                           fsr0l	equ	0xFE9
  7835                           wreg	equ	0xFE8
  7836                           indf1	equ	0xFE7
  7837                           postinc1	equ	0xFE6
  7838                           fsr1h	equ	0xFE2
  7839                           fsr1l	equ	0xFE1
  7840                           bsr	equ	0xFE0
  7841                           indf2	equ	0xFDF
  7842                           postinc2	equ	0xFDE
  7843                           postdec2	equ	0xFDD
  7844                           plusw2	equ	0xFDB
  7845                           fsr2h	equ	0xFDA
  7846                           fsr2l	equ	0xFD9
  7847                           status	equ	0xFD8
  7848                           
  7849                           	psect	intcode_body
  7850  001AF4                     __pintcode_body:
  7851                           	opt stack 22
  7852  001AF4                     int_func:
  7853                           	opt stack 22
  7854  001AF4  CFE9 F02F          	movff	fsr0l,??_high_isr+2
  7855  001AF8  CFEA F030          	movff	fsr0h,??_high_isr+3
  7856  001AFC  CFE1 F031          	movff	fsr1l,??_high_isr+4
  7857  001B00  CFE2 F032          	movff	fsr1h,??_high_isr+5
  7858  001B04  CFD9 F033          	movff	fsr2l,??_high_isr+6
  7859  001B08  CFDA F034          	movff	fsr2h,??_high_isr+7
  7860  001B0C  CFF3 F035          	movff	prodl,??_high_isr+8
  7861  001B10  CFF4 F036          	movff	prodh,??_high_isr+9
  7862  001B14  CFF6 F037          	movff	tblptrl,??_high_isr+10
  7863  001B18  CFF7 F038          	movff	tblptrh,??_high_isr+11
  7864  001B1C  CFF8 F039          	movff	tblptru,??_high_isr+12
  7865  001B20  CFF5 F03A          	movff	tablat,??_high_isr+13
  7866                           
  7867                           ;interrupts.c: 45: struct CANRxMsg CANRxNewMessage;
  7868                           ;interrupts.c: 52: if(PIR5bits.RXB0IF==1 | PIR5bits.RXB1IF==1)
  7869  001B24  0E00               	movlw	0
  7870  001B26  B077               	btfsc	3959,0,c	;volatile
  7871  001B28  0E01               	movlw	1
  7872  001B2A  B277               	btfsc	3959,1,c	;volatile
  7873  001B2C  0E01               	movlw	1
  7874  001B2E  A0E8               	btfss	wreg,0,c
  7875  001B30  D027               	goto	i2l36
  7876                           
  7877                           ;interrupts.c: 53: {
  7878                           ;interrupts.c: 55: ECANReceiveMessage(&CANRxNewMessage.id, CANRxNewMessage.data_RX, &CAN
      +                          RxNewMessage.dataLen, &CANRxNewMessage.flags);
  7879  001B32  0100               	movlb	0	; () banked
  7880  001B34  0E00               	movlw	high high_isr@CANRxNewMessage
  7881  001B36  6E1F               	movwf	ECANReceiveMessage@id+1,c
  7882  001B38  0100               	movlb	0	; () banked
  7883  001B3A  0E60               	movlw	low high_isr@CANRxNewMessage
  7884  001B3C  6E1E               	movwf	ECANReceiveMessage@id,c
  7885  001B3E  0100               	movlb	0	; () banked
  7886  001B40  0E00               	movlw	high (high_isr@CANRxNewMessage+4)
  7887  001B42  6E21               	movwf	ECANReceiveMessage@data+1,c
  7888  001B44  0100               	movlb	0	; () banked
  7889  001B46  0E64               	movlw	low (high_isr@CANRxNewMessage+4)
  7890  001B48  6E20               	movwf	ECANReceiveMessage@data,c
  7891  001B4A  0100               	movlb	0	; () banked
  7892  001B4C  0E00               	movlw	high (high_isr@CANRxNewMessage+12)
  7893  001B4E  6E23               	movwf	ECANReceiveMessage@dataLen+1,c
  7894  001B50  0100               	movlb	0	; () banked
  7895  001B52  0E6C               	movlw	low (high_isr@CANRxNewMessage+12)
  7896  001B54  6E22               	movwf	ECANReceiveMessage@dataLen,c
  7897  001B56  0100               	movlb	0	; () banked
  7898  001B58  0E00               	movlw	high (high_isr@CANRxNewMessage+13)
  7899  001B5A  6E25               	movwf	ECANReceiveMessage@msgFlags+1,c
  7900  001B5C  0100               	movlb	0	; () banked
  7901  001B5E  0E6D               	movlw	low (high_isr@CANRxNewMessage+13)
  7902  001B60  6E24               	movwf	ECANReceiveMessage@msgFlags,c
  7903  001B62  EC88  F00B         	call	_ECANReceiveMessage	;wreg free
  7904                           
  7905                           ;interrupts.c: 56: PutCANRxFifo(CANRxNewMessage);
  7906  001B66  EE20  F060         	lfsr	2,high_isr@CANRxNewMessage
  7907  001B6A  EE10  F015         	lfsr	1,PutCANRxFifo@PutMessage
  7908  001B6E  0E0E               	movlw	14
  7909  001B70                     i2u229_41:
  7910  001B70  CFDE FFE6          	movff	postinc2,postinc1
  7911  001B74  2EE8               	decfsz	wreg,f,c
  7912  001B76  D7FC               	goto	i2u229_41
  7913  001B78  EC4F  F00F         	call	_PutCANRxFifo	;wreg free
  7914                           
  7915                           ;interrupts.c: 58: PIR5bits.RXB0IF=0;
  7916  001B7C  9077               	bcf	3959,0,c	;volatile
  7917                           
  7918                           ;interrupts.c: 59: PIR5bits.RXB1IF=0;
  7919  001B7E  9277               	bcf	3959,1,c	;volatile
  7920  001B80                     i2l36:
  7921  001B80  C03A  FFF5         	movff	??_high_isr+13,tablat
  7922  001B84  C039  FFF8         	movff	??_high_isr+12,tblptru
  7923  001B88  C038  FFF7         	movff	??_high_isr+11,tblptrh
  7924  001B8C  C037  FFF6         	movff	??_high_isr+10,tblptrl
  7925  001B90  C036  FFF4         	movff	??_high_isr+9,prodh
  7926  001B94  C035  FFF3         	movff	??_high_isr+8,prodl
  7927  001B98  C034  FFDA         	movff	??_high_isr+7,fsr2h
  7928  001B9C  C033  FFD9         	movff	??_high_isr+6,fsr2l
  7929  001BA0  C032  FFE2         	movff	??_high_isr+5,fsr1h
  7930  001BA4  C031  FFE1         	movff	??_high_isr+4,fsr1l
  7931  001BA8  C030  FFEA         	movff	??_high_isr+3,fsr0h
  7932  001BAC  C02F  FFE9         	movff	??_high_isr+2,fsr0l
  7933  001BB0  C02E  FFFB         	movff	??_high_isr+1,pclatu
  7934  001BB4  C02D  FFFA         	movff	??_high_isr,pclath
  7935  001BB8  0011               	retfie		f
  7936  001BBA                     __end_of_high_isr:
  7937                           	opt stack 0
  7938                           pclatu	equ	0xFFB
  7939                           pclath	equ	0xFFA
  7940                           tblptru	equ	0xFF8
  7941                           tblptrh	equ	0xFF7
  7942                           tblptrl	equ	0xFF6
  7943                           tablat	equ	0xFF5
  7944                           prodh	equ	0xFF4
  7945                           prodl	equ	0xFF3
  7946                           intcon	equ	0xFF2
  7947                           intcon2	equ	0xFF1
  7948                           intcon3	equ	0xFF0
  7949                           postinc0	equ	0xFEE
  7950                           postdec0	equ	0xFED
  7951                           fsr0h	equ	0xFEA
  7952                           fsr0l	equ	0xFE9
  7953                           wreg	equ	0xFE8
  7954                           indf1	equ	0xFE7
  7955                           postinc1	equ	0xFE6
  7956                           fsr1h	equ	0xFE2
  7957                           fsr1l	equ	0xFE1
  7958                           bsr	equ	0xFE0
  7959                           indf2	equ	0xFDF
  7960                           postinc2	equ	0xFDE
  7961                           postdec2	equ	0xFDD
  7962                           plusw2	equ	0xFDB
  7963                           fsr2h	equ	0xFDA
  7964                           fsr2l	equ	0xFD9
  7965                           status	equ	0xFD8
  7966                           
  7967 ;; *************** function _PutCANRxFifo *****************
  7968 ;; Defined at:
  7969 ;;		line 95 in file "Can_HL.c"
  7970 ;; Parameters:    Size  Location     Type
  7971 ;;  PutMessage     14   20[COMRAM] struct CANRxMsg
  7972 ;; Auto vars:     Size  Location     Type
  7973 ;;		None
  7974 ;; Return value:  Size  Location     Type
  7975 ;;		None               void
  7976 ;; Registers used:
  7977 ;;		wreg, fsr1l, fsr1h, fsr2l, fsr2h, status,2, status,0, prodl, prodh
  7978 ;; Tracked objects:
  7979 ;;		On entry : 0/0
  7980 ;;		On exit  : 0/0
  7981 ;;		Unchanged: 0/0
  7982 ;; Data sizes:     COMRAM   BANK0   BANK1   BANK2   BANK3   BANK4   BANK5   BANK6   BANK7   BANK8   BANK9  BANK10  BANK1
      +1  BANK12  BANK13  BANK14
  7983 ;;      Params:        14       0       0       0       0       0       0       0       0       0       0       0       
      +0       0       0       0
  7984 ;;      Locals:         0       0       0       0       0       0       0       0       0       0       0       0       
      +0       0       0       0
  7985 ;;      Temps:          2       0       0       0       0       0       0       0       0       0       0       0       
      +0       0       0       0
  7986 ;;      Totals:        16       0       0       0       0       0       0       0       0       0       0       0       
      +0       0       0       0
  7987 ;;Total ram usage:       16 bytes
  7988 ;; Hardware stack levels used:    1
  7989 ;; This function calls:
  7990 ;;		Nothing
  7991 ;; This function is called by:
  7992 ;;		_high_isr
  7993 ;; This function uses a non-reentrant model
  7994 ;;
  7995                           
  7996                           	psect	text33
  7997  001E9E                     __ptext33:
  7998                           	opt stack 0
  7999  001E9E                     _PutCANRxFifo:
  8000                           	opt stack 23
  8001                           
  8002                           ;Can_HL.c: 98: if(!CANRxFifo.Fifofull)
  8003                           
  8004                           ;incstack = 0
  8005  001E9E  0102               	movlb	2	; () banked
  8006  001EA0  0102               	movlb	2	; () banked
  8007  001EA2  678E               	tstfsz	(_CANRxFifo+142)& (0+255),b
  8008  001EA4  0012               	return	
  8009                           
  8010                           ; BSR set to: 2
  8011                           ;Can_HL.c: 99: {
  8012                           ;Can_HL.c: 100: CANRxFifo.CANMsg[CANRxFifo.HighIndex]=PutMessage;
  8013  001EA6  EE20  F015         	lfsr	2,PutCANRxFifo@PutMessage
  8014  001EAA  0102               	movlb	2	; () banked
  8015  001EAC  0102               	movlb	2	; () banked
  8016  001EAE  518D               	movf	(_CANRxFifo+141)& (0+255),w,b
  8017  001EB0  0D0E               	mullw	14
  8018  001EB2  0E00               	movlw	low _CANRxFifo
  8019  001EB4  6E23               	movwf	??_PutCANRxFifo& (0+255),c
  8020  001EB6  0E02               	movlw	high _CANRxFifo
  8021  001EB8  6E24               	movwf	(??_PutCANRxFifo+1)& (0+255),c
  8022  001EBA  50F3               	movf	prodl,w,c
  8023  001EBC  2623               	addwf	??_PutCANRxFifo,f,c
  8024  001EBE  50F4               	movf	prodh,w,c
  8025  001EC0  2224               	addwfc	??_PutCANRxFifo+1,f,c
  8026  001EC2  C023  FFE1         	movff	??_PutCANRxFifo,fsr1l
  8027  001EC6  C024  FFE2         	movff	??_PutCANRxFifo+1,fsr1h
  8028  001ECA  0E0E               	movlw	14
  8029  001ECC                     i2u241_41:
  8030  001ECC  CFDE FFE6          	movff	postinc2,postinc1
  8031  001ED0  2EE8               	decfsz	wreg,f,c
  8032  001ED2  D7FC               	goto	i2u241_41
  8033                           
  8034                           ; BSR set to: 2
  8035                           ;Can_HL.c: 101: CANRxFifo.FifoEmpty=0;
  8036  001ED4  6E23               	movwf	??_PutCANRxFifo& (0+255),c
  8037  001ED6  0E00               	movlw	0
  8038  001ED8  0102               	movlb	2	; () banked
  8039  001EDA  0102               	movlb	2	; () banked
  8040  001EDC  6F8F               	movwf	(_CANRxFifo+143)& (0+255),b
  8041  001EDE  5023               	movf	??_PutCANRxFifo& (0+255),w,c
  8042                           
  8043                           ; BSR set to: 2
  8044                           ;Can_HL.c: 102: CANRxFifo.HighIndex++;
  8045  001EE0  0102               	movlb	2	; () banked
  8046  001EE2  0102               	movlb	2	; () banked
  8047  001EE4  2B8D               	incf	(_CANRxFifo+141)& (0+255),f,b
  8048                           
  8049                           ; BSR set to: 2
  8050                           ;Can_HL.c: 104: if(CANRxFifo.HighIndex==(10))
  8051  001EE6  0102               	movlb	2	; () banked
  8052  001EE8  0102               	movlb	2	; () banked
  8053  001EEA  518D               	movf	(_CANRxFifo+141)& (0+255),w,b
  8054  001EEC  0A0A               	xorlw	10
  8055  001EEE  A4D8               	btfss	status,2,c
  8056  001EF0  D006               	goto	i2l3454
  8057                           
  8058                           ; BSR set to: 2
  8059                           ;Can_HL.c: 105: CANRxFifo.HighIndex=0;
  8060  001EF2  6E23               	movwf	??_PutCANRxFifo& (0+255),c
  8061  001EF4  0E00               	movlw	0
  8062  001EF6  0102               	movlb	2	; () banked
  8063  001EF8  0102               	movlb	2	; () banked
  8064  001EFA  6F8D               	movwf	(_CANRxFifo+141)& (0+255),b
  8065  001EFC  5023               	movf	??_PutCANRxFifo& (0+255),w,c
  8066  001EFE                     i2l3454:
  8067                           
  8068                           ; BSR set to: 2
  8069                           ;Can_HL.c: 107: if(CANRxFifo.HighIndex==CANRxFifo.LowIndex)
  8070  001EFE  0102               	movlb	2	; () banked
  8071  001F00  0102               	movlb	2	; () banked
  8072  001F02  518C               	movf	(_CANRxFifo+140)& (0+255),w,b
  8073  001F04  0102               	movlb	2	; () banked
  8074  001F06  EE22  F08D         	lfsr	2,_CANRxFifo+141
  8075  001F0A  62DF               	cpfseq	indf2,c
  8076  001F0C  0012               	return	
  8077                           
  8078                           ; BSR set to: 2
  8079                           ;Can_HL.c: 108: CANRxFifo.Fifofull=1;
  8080  001F0E  6E23               	movwf	??_PutCANRxFifo& (0+255),c
  8081  001F10  0E01               	movlw	1
  8082  001F12  0102               	movlb	2	; () banked
  8083  001F14  0102               	movlb	2	; () banked
  8084  001F16  6F8E               	movwf	(_CANRxFifo+142)& (0+255),b
  8085  001F18  5023               	movf	??_PutCANRxFifo& (0+255),w,c
  8086  001F1A  0012               	return	
  8087  001F1C                     __end_of_PutCANRxFifo:
  8088                           	opt stack 0
  8089                           pclatu	equ	0xFFB
  8090                           pclath	equ	0xFFA
  8091                           tblptru	equ	0xFF8
  8092                           tblptrh	equ	0xFF7
  8093                           tblptrl	equ	0xFF6
  8094                           tablat	equ	0xFF5
  8095                           prodh	equ	0xFF4
  8096                           prodl	equ	0xFF3
  8097                           intcon	equ	0xFF2
  8098                           intcon2	equ	0xFF1
  8099                           intcon3	equ	0xFF0
  8100                           postinc0	equ	0xFEE
  8101                           postdec0	equ	0xFED
  8102                           fsr0h	equ	0xFEA
  8103                           fsr0l	equ	0xFE9
  8104                           wreg	equ	0xFE8
  8105                           indf1	equ	0xFE7
  8106                           postinc1	equ	0xFE6
  8107                           fsr1h	equ	0xFE2
  8108                           fsr1l	equ	0xFE1
  8109                           bsr	equ	0xFE0
  8110                           indf2	equ	0xFDF
  8111                           postinc2	equ	0xFDE
  8112                           postdec2	equ	0xFDD
  8113                           plusw2	equ	0xFDB
  8114                           fsr2h	equ	0xFDA
  8115                           fsr2l	equ	0xFD9
  8116                           status	equ	0xFD8
  8117                           
  8118 ;; *************** function _ECANReceiveMessage *****************
  8119 ;; Defined at:
  8120 ;;		line 796 in file "ECANPoll.c"
  8121 ;; Parameters:    Size  Location     Type
  8122 ;;  id              2   29[COMRAM] PTR unsigned long 
  8123 ;;		 -> high_isr@CANRxNewMessage(14), 
  8124 ;;  data            2   31[COMRAM] PTR unsigned char 
  8125 ;;		 -> high_isr@CANRxNewMessage(14), 
  8126 ;;  dataLen         2   33[COMRAM] PTR unsigned char 
  8127 ;;		 -> high_isr@CANRxNewMessage(14), 
  8128 ;;  msgFlags        2   35[COMRAM] PTR enum E19298
  8129 ;;		 -> high_isr@CANRxNewMessage(14), 
  8130 ;; Auto vars:     Size  Location     Type
  8131 ;;  ptr             2   41[COMRAM] PTR unsigned char 
  8132 ;;		 -> RXB1CON(1), RXB0CON(1), 
  8133 ;;  savedPtr        2   38[COMRAM] PTR unsigned char 
  8134 ;;		 -> RXB1CON(1), RXB0CON(1), 
  8135 ;;  temp            1   43[COMRAM] struct .
  8136 ;;  i               1   40[COMRAM] unsigned char 
  8137 ;; Return value:  Size  Location     Type
  8138 ;;                  1    wreg      enum E18559
  8139 ;; Registers used:
  8140 ;;		wreg, fsr1l, fsr1h, fsr2l, fsr2h, status,2, status,0, cstack
  8141 ;; Tracked objects:
  8142 ;;		On entry : 0/0
  8143 ;;		On exit  : 0/0
  8144 ;;		Unchanged: 0/0
  8145 ;; Data sizes:     COMRAM   BANK0   BANK1   BANK2   BANK3   BANK4   BANK5   BANK6   BANK7   BANK8   BANK9  BANK10  BANK1
      +1  BANK12  BANK13  BANK14
  8146 ;;      Params:         8       0       0       0       0       0       0       0       0       0       0       0       
      +0       0       0       0
  8147 ;;      Locals:         6       0       0       0       0       0       0       0       0       0       0       0       
      +0       0       0       0
  8148 ;;      Temps:          1       0       0       0       0       0       0       0       0       0       0       0       
      +0       0       0       0
  8149 ;;      Totals:        15       0       0       0       0       0       0       0       0       0       0       0       
      +0       0       0       0
  8150 ;;Total ram usage:       15 bytes
  8151 ;; Hardware stack levels used:    1
  8152 ;; Hardware stack levels required when called:    1
  8153 ;; This function calls:
  8154 ;;		__RegsToCANID
  8155 ;; This function is called by:
  8156 ;;		_high_isr
  8157 ;; This function uses a non-reentrant model
  8158 ;;
  8159                           
  8160                           	psect	text34
  8161  001710                     __ptext34:
  8162                           	opt stack 0
  8163  001710                     _ECANReceiveMessage:
  8164                           	opt stack 22
  8165                           
  8166                           ;ECANPoll.c: 805: BYTE *ptr, *savedPtr;
  8167                           ;ECANPoll.c: 806: char i;
  8168                           ;ECANPoll.c: 807: BYTE_VAL temp;
  8169                           ;ECANPoll.c: 809: _ECANRxFilterHitInfo.Val = 0;
  8170                           
  8171                           ; BSR set to: 2
  8172                           ;incstack = 0
  8173  001710  6E26               	movwf	??_ECANReceiveMessage& (0+255),c
  8174  001712  0E00               	movlw	0
  8175  001714  6E3E               	movwf	__ECANRxFilterHitInfo,c
  8176  001716  5026               	movf	??_ECANReceiveMessage& (0+255),w,c
  8177                           
  8178                           ;ECANPoll.c: 819: {
  8179                           ;ECANPoll.c: 821: if ( RXB0FUL )
  8180  001718  AE60               	btfss	3936,7,c	;volatile
  8181  00171A  D013               	goto	i2l449
  8182                           
  8183                           ;ECANPoll.c: 822: {
  8184                           ;ECANPoll.c: 824: RXB0IF = 0;
  8185  00171C  9077               	bcf	3959,0,c	;volatile
  8186                           
  8187                           ;ECANPoll.c: 827: if ( RXB0OVFL )
  8188  00171E  AE71               	btfss	3953,7,c	;volatile
  8189  001720  D007               	goto	i2l3378
  8190                           
  8191                           ;ECANPoll.c: 828: {
  8192                           ;ECANPoll.c: 829: *msgFlags |= ECAN_RX_OVERFLOW;
  8193  001722  C024  FFD9         	movff	ECANReceiveMessage@msgFlags,fsr2l
  8194  001726  C025  FFDA         	movff	ECANReceiveMessage@msgFlags+1,fsr2h
  8195  00172A  0E00               	movlw	0
  8196  00172C  86DB               	bsf	plusw2,3,c
  8197                           
  8198                           ;ECANPoll.c: 830: RXB0OVFL = 0;
  8199  00172E  9E71               	bcf	3953,7,c	;volatile
  8200  001730                     i2l3378:
  8201                           
  8202                           ;ECANPoll.c: 831: }
  8203                           ;ECANPoll.c: 833: _ECANRxFilterHitInfo.bits.b0 = RXB0FILHIT0;
  8204  001730  A060               	btfss	3936,0,c	;volatile
  8205  001732  D002               	bra	i2u232_45
  8206  001734  803E               	bsf	__ECANRxFilterHitInfo,0,c
  8207  001736  D001               	bra	i2u232_47
  8208  001738                     i2u232_45:
  8209  001738  903E               	bcf	__ECANRxFilterHitInfo,0,c
  8210  00173A                     i2u232_47:
  8211                           
  8212                           ;ECANPoll.c: 835: ptr = (BYTE*)&RXB0CON;
  8213  00173A  0E0F               	movlw	15	;volatile
  8214  00173C  6E2B               	movwf	ECANReceiveMessage@ptr+1,c
  8215  00173E  0E60               	movlw	96	;volatile
  8216  001740  D021               	goto	L5
  8217  001742                     i2l449:
  8218                           
  8219                           ;ECANPoll.c: 838: else if ( RXB1FUL )
  8220  001742  010F               	movlb	15
  8221  001744  AF30               	btfss	48,7,b	;volatile
  8222  001746  0012               	return	
  8223                           
  8224                           ;ECANPoll.c: 839: {
  8225                           ;ECANPoll.c: 841: RXB1IF = 0;
  8226  001748  9277               	bcf	3959,1,c	;volatile
  8227                           
  8228                           ;ECANPoll.c: 844: if ( RXB1OVFL )
  8229  00174A  AC71               	btfss	3953,6,c	;volatile
  8230  00174C  D007               	goto	i2l3388
  8231                           
  8232                           ;ECANPoll.c: 845: {
  8233                           ;ECANPoll.c: 846: *msgFlags |= ECAN_RX_OVERFLOW;
  8234  00174E  C024  FFD9         	movff	ECANReceiveMessage@msgFlags,fsr2l
  8235  001752  C025  FFDA         	movff	ECANReceiveMessage@msgFlags+1,fsr2h
  8236  001756  0E00               	movlw	0
  8237  001758  86DB               	bsf	plusw2,3,c
  8238                           
  8239                           ;ECANPoll.c: 847: RXB1OVFL = 0;
  8240  00175A  9C71               	bcf	3953,6,c	;volatile
  8241  00175C                     i2l3388:
  8242                           
  8243                           ;ECANPoll.c: 848: }
  8244                           ;ECANPoll.c: 850: _ECANRxFilterHitInfo.Val = RXB1CON & 0x07;
  8245  00175C  010F               	movlb	15	; () banked
  8246  00175E  010F               	movlb	15	; () banked
  8247  001760  5130               	movf	48,w,b	;volatile
  8248  001762  0B07               	andlw	7
  8249  001764  6E3E               	movwf	__ECANRxFilterHitInfo,c
  8250                           
  8251                           ; BSR set to: 15
  8252                           ;ECANPoll.c: 852: if ( _ECANRxFilterHitInfo.Val < 0x02 )
  8253  001766  0E02               	movlw	2
  8254  001768  5C3E               	subwf	__ECANRxFilterHitInfo,w,c
  8255  00176A  B0D8               	btfsc	status,0,c
  8256  00176C  D006               	goto	i2l3394
  8257                           
  8258                           ; BSR set to: 15
  8259                           ;ECANPoll.c: 853: *msgFlags |= ECAN_RX_DBL_BUFFERED;
  8260  00176E  C024  FFD9         	movff	ECANReceiveMessage@msgFlags,fsr2l
  8261  001772  C025  FFDA         	movff	ECANReceiveMessage@msgFlags+1,fsr2h
  8262  001776  0E00               	movlw	0
  8263  001778  8EDB               	bsf	plusw2,7,c
  8264  00177A                     i2l3394:
  8265                           
  8266                           ; BSR set to: 15
  8267                           ;ECANPoll.c: 856: ptr = (BYTE*)&RXB1CON;
  8268  00177A  010F               	movlb	15	; () banked
  8269  00177C  0E0F               	movlw	15	;volatile
  8270  00177E  6E2B               	movwf	ECANReceiveMessage@ptr+1,c
  8271  001780  010F               	movlb	15	; () banked
  8272  001782  0E30               	movlw	48	;volatile
  8273  001784                     L5:
  8274  001784  6E2A               	movwf	ECANReceiveMessage@ptr,c
  8275                           
  8276                           ;ECANPoll.c: 939: savedPtr = ptr;
  8277                           
  8278                           ; BSR set to: 15
  8279                           
  8280                           ;ECANPoll.c: 862: }
  8281                           ;ECANPoll.c: 938: _SaveMessage:
  8282                           
  8283                           ; BSR set to: 15
  8284                           ;ECANPoll.c: 861: goto _SaveMessage;
  8285                           
  8286                           ; BSR set to: 15
  8287                           
  8288                           ; BSR set to: 15
  8289                           ;ECANPoll.c: 858: else
  8290                           ;ECANPoll.c: 859: return FALSE;
  8291                           ;	Return value of _ECANReceiveMessage is never used
  8292                           
  8293                           ;ECANPoll.c: 857: }
  8294  001786  C02B  F028         	movff	ECANReceiveMessage@ptr+1,ECANReceiveMessage@savedPtr+1
  8295  00178A  C02A  F027         	movff	ECANReceiveMessage@ptr,ECANReceiveMessage@savedPtr
  8296                           
  8297                           ;ECANPoll.c: 940: *msgFlags = 0;
  8298  00178E  C024  FFD9         	movff	ECANReceiveMessage@msgFlags,fsr2l
  8299  001792  C025  FFDA         	movff	ECANReceiveMessage@msgFlags+1,fsr2h
  8300  001796  0E00               	movlw	0
  8301  001798  6EDF               	movwf	indf2,c
  8302                           
  8303                           ;ECANPoll.c: 943: temp.Val = *(ptr+5);
  8304  00179A  EE20 F005          	lfsr	2,5
  8305  00179E  502A               	movf	ECANReceiveMessage@ptr,w,c
  8306  0017A0  26D9               	addwf	fsr2l,f,c
  8307  0017A2  502B               	movf	ECANReceiveMessage@ptr+1,w,c
  8308  0017A4  22DA               	addwfc	fsr2h,f,c
  8309  0017A6  50DF               	movf	indf2,w,c
  8310  0017A8  6E2C               	movwf	ECANReceiveMessage@temp,c
  8311                           
  8312                           ;ECANPoll.c: 944: *dataLen = temp.Val & 0b00001111;
  8313  0017AA  502C               	movf	ECANReceiveMessage@temp,w,c
  8314  0017AC  0B0F               	andlw	15
  8315  0017AE  C022  FFD9         	movff	ECANReceiveMessage@dataLen,fsr2l
  8316  0017B2  C023  FFDA         	movff	ECANReceiveMessage@dataLen+1,fsr2h
  8317  0017B6  6EDF               	movwf	indf2,c
  8318                           
  8319                           ;ECANPoll.c: 947: if ( temp.bits.b6 )
  8320  0017B8  AC2C               	btfss	ECANReceiveMessage@temp,6,c
  8321  0017BA  D006               	goto	i2l458
  8322                           
  8323                           ;ECANPoll.c: 948: *msgFlags |= ECAN_RX_RTR_FRAME;
  8324  0017BC  C024  FFD9         	movff	ECANReceiveMessage@msgFlags,fsr2l
  8325  0017C0  C025  FFDA         	movff	ECANReceiveMessage@msgFlags+1,fsr2h
  8326  0017C4  0E00               	movlw	0
  8327  0017C6  8CDB               	bsf	plusw2,6,c
  8328  0017C8                     i2l458:
  8329                           
  8330                           ;ECANPoll.c: 951: temp.Val = *(ptr+2);
  8331  0017C8  EE20 F002          	lfsr	2,2
  8332  0017CC  502A               	movf	ECANReceiveMessage@ptr,w,c
  8333  0017CE  26D9               	addwf	fsr2l,f,c
  8334  0017D0  502B               	movf	ECANReceiveMessage@ptr+1,w,c
  8335  0017D2  22DA               	addwfc	fsr2h,f,c
  8336  0017D4  50DF               	movf	indf2,w,c
  8337  0017D6  6E2C               	movwf	ECANReceiveMessage@temp,c
  8338                           
  8339                           ;ECANPoll.c: 952: if ( temp.bits.b3 )
  8340  0017D8  A62C               	btfss	ECANReceiveMessage@temp,3,c
  8341  0017DA  D009               	goto	i2l3414
  8342                           
  8343                           ;ECANPoll.c: 953: {
  8344                           ;ECANPoll.c: 954: *msgFlags |= ECAN_RX_XTD_FRAME;
  8345  0017DC  C024  FFD9         	movff	ECANReceiveMessage@msgFlags,fsr2l
  8346  0017E0  C025  FFDA         	movff	ECANReceiveMessage@msgFlags+1,fsr2h
  8347  0017E4  0E00               	movlw	0
  8348  0017E6  8ADB               	bsf	plusw2,5,c
  8349                           
  8350                           ;ECANPoll.c: 955: temp.Val = 1;
  8351  0017E8  6E26               	movwf	??_ECANReceiveMessage& (0+255),c
  8352  0017EA  0E01               	movlw	1
  8353  0017EC  D002               	goto	L6
  8354  0017EE                     i2l3414:
  8355                           
  8356                           ;ECANPoll.c: 957: else
  8357                           ;ECANPoll.c: 958: temp.Val = 0;
  8358  0017EE  6E26               	movwf	??_ECANReceiveMessage& (0+255),c
  8359  0017F0  0E00               	movlw	0
  8360  0017F2                     L6:
  8361  0017F2  6E2C               	movwf	ECANReceiveMessage@temp,c
  8362  0017F4  5026               	movf	??_ECANReceiveMessage& (0+255),w,c
  8363                           
  8364                           ;ECANPoll.c: 960: _RegsToCANID(ptr+1, id, temp.Val);
  8365  0017F6  0E01               	movlw	1
  8366  0017F8  242A               	addwf	ECANReceiveMessage@ptr,w,c
  8367  0017FA  6E15               	movwf	__RegsToCANID@ptr,c
  8368  0017FC  0E00               	movlw	0
  8369  0017FE  202B               	addwfc	ECANReceiveMessage@ptr+1,w,c
  8370  001800  6E16               	movwf	__RegsToCANID@ptr+1,c
  8371  001802  C01F  F018         	movff	ECANReceiveMessage@id+1,__RegsToCANID@val+1
  8372  001806  C01E  F017         	movff	ECANReceiveMessage@id,__RegsToCANID@val
  8373  00180A  C02C  F019         	movff	ECANReceiveMessage@temp,__RegsToCANID@type
  8374  00180E  EC15  F00A         	call	__RegsToCANID	;wreg free
  8375                           
  8376                           ;ECANPoll.c: 963: ptr += 6;
  8377  001812  0E06               	movlw	6
  8378  001814  262A               	addwf	ECANReceiveMessage@ptr,f,c
  8379  001816  0E00               	movlw	0
  8380  001818  222B               	addwfc	ECANReceiveMessage@ptr+1,f,c
  8381                           
  8382                           ;ECANPoll.c: 964: temp.Val = *dataLen;
  8383  00181A  C022  FFD9         	movff	ECANReceiveMessage@dataLen,fsr2l
  8384  00181E  C023  FFDA         	movff	ECANReceiveMessage@dataLen+1,fsr2h
  8385  001822  50DF               	movf	indf2,w,c
  8386  001824  6E2C               	movwf	ECANReceiveMessage@temp,c
  8387                           
  8388                           ;ECANPoll.c: 965: for ( i = 0; i < temp.Val; i++ )
  8389  001826  6E26               	movwf	??_ECANReceiveMessage& (0+255),c
  8390  001828  0E00               	movlw	0
  8391  00182A  6E29               	movwf	ECANReceiveMessage@i,c
  8392  00182C  5026               	movf	??_ECANReceiveMessage& (0+255),w,c
  8393  00182E  D00F               	goto	i2l3432
  8394  001830                     i2l3424:
  8395                           
  8396                           ;ECANPoll.c: 966: *data++ = *ptr++;
  8397  001830  C02A  FFD9         	movff	ECANReceiveMessage@ptr,fsr2l
  8398  001834  C02B  FFDA         	movff	ECANReceiveMessage@ptr+1,fsr2h
  8399  001838  C020  FFE1         	movff	ECANReceiveMessage@data,fsr1l
  8400  00183C  C021  FFE2         	movff	ECANReceiveMessage@data+1,fsr1h
  8401  001840  CFDF FFE7          	movff	indf2,indf1
  8402  001844  4A2A               	infsnz	ECANReceiveMessage@ptr,f,c
  8403  001846  2A2B               	incf	ECANReceiveMessage@ptr+1,f,c
  8404  001848  4A20               	infsnz	ECANReceiveMessage@data,f,c
  8405  00184A  2A21               	incf	ECANReceiveMessage@data+1,f,c
  8406  00184C  2A29               	incf	ECANReceiveMessage@i,f,c
  8407  00184E                     i2l3432:
  8408  00184E  502C               	movf	ECANReceiveMessage@temp,w,c
  8409  001850  5C29               	subwf	ECANReceiveMessage@i,w,c
  8410  001852  A0D8               	btfss	status,0,c
  8411  001854  D7ED               	goto	i2l3424
  8412                           
  8413                           ;ECANPoll.c: 969: if ( IRXIF )
  8414  001856  AE77               	btfss	3959,7,c	;volatile
  8415  001858  D007               	goto	i2l3438
  8416                           
  8417                           ;ECANPoll.c: 970: {
  8418                           ;ECANPoll.c: 971: *msgFlags |= ECAN_RX_INVALID_MSG;
  8419  00185A  C024  FFD9         	movff	ECANReceiveMessage@msgFlags,fsr2l
  8420  00185E  C025  FFDA         	movff	ECANReceiveMessage@msgFlags+1,fsr2h
  8421  001862  0E00               	movlw	0
  8422  001864  88DB               	bsf	plusw2,4,c
  8423                           
  8424                           ;ECANPoll.c: 972: IRXIF = 0;
  8425  001866  9E77               	bcf	3959,7,c	;volatile
  8426  001868                     i2l3438:
  8427                           
  8428                           ;ECANPoll.c: 973: }
  8429                           ;ECANPoll.c: 976: *savedPtr &= 0x7f;
  8430  001868  C027  FFD9         	movff	ECANReceiveMessage@savedPtr,fsr2l
  8431  00186C  C028  FFDA         	movff	ECANReceiveMessage@savedPtr+1,fsr2h
  8432  001870  0E7F               	movlw	127
  8433  001872  16DF               	andwf	indf2,f,c
  8434  001874  0012               	return	
  8435  001876                     __end_of_ECANReceiveMessage:
  8436                           	opt stack 0
  8437                           pclatu	equ	0xFFB
  8438                           pclath	equ	0xFFA
  8439                           tblptru	equ	0xFF8
  8440                           tblptrh	equ	0xFF7
  8441                           tblptrl	equ	0xFF6
  8442                           tablat	equ	0xFF5
  8443                           prodh	equ	0xFF4
  8444                           prodl	equ	0xFF3
  8445                           intcon	equ	0xFF2
  8446                           intcon2	equ	0xFF1
  8447                           intcon3	equ	0xFF0
  8448                           postinc0	equ	0xFEE
  8449                           postdec0	equ	0xFED
  8450                           fsr0h	equ	0xFEA
  8451                           fsr0l	equ	0xFE9
  8452                           wreg	equ	0xFE8
  8453                           indf1	equ	0xFE7
  8454                           postinc1	equ	0xFE6
  8455                           fsr1h	equ	0xFE2
  8456                           fsr1l	equ	0xFE1
  8457                           bsr	equ	0xFE0
  8458                           indf2	equ	0xFDF
  8459                           postinc2	equ	0xFDE
  8460                           postdec2	equ	0xFDD
  8461                           plusw2	equ	0xFDB
  8462                           fsr2h	equ	0xFDA
  8463                           fsr2l	equ	0xFD9
  8464                           status	equ	0xFD8
  8465                           
  8466 ;; *************** function __RegsToCANID *****************
  8467 ;; Defined at:
  8468 ;;		line 1154 in file "ECANPoll.c"
  8469 ;; Parameters:    Size  Location     Type
  8470 ;;  ptr             2   20[COMRAM] PTR unsigned char 
  8471 ;;		 -> RXB1CON(1), RXB0CON(1), 
  8472 ;;  val             2   22[COMRAM] PTR unsigned long 
  8473 ;;		 -> high_isr@CANRxNewMessage(14), 
  8474 ;;  type            1   24[COMRAM] unsigned char 
  8475 ;; Auto vars:     Size  Location     Type
  8476 ;;  Value           2   27[COMRAM] PTR struct _CAN_MESSAGE_
  8477 ;;		 -> high_isr@CANRxNewMessage(14), 
  8478 ;; Return value:  Size  Location     Type
  8479 ;;		None               void
  8480 ;; Registers used:
  8481 ;;		wreg, fsr1l, fsr1h, fsr2l, fsr2h, status,2, status,0
  8482 ;; Tracked objects:
  8483 ;;		On entry : 0/0
  8484 ;;		On exit  : 0/0
  8485 ;;		Unchanged: 0/0
  8486 ;; Data sizes:     COMRAM   BANK0   BANK1   BANK2   BANK3   BANK4   BANK5   BANK6   BANK7   BANK8   BANK9  BANK10  BANK1
      +1  BANK12  BANK13  BANK14
  8487 ;;      Params:         5       0       0       0       0       0       0       0       0       0       0       0       
      +0       0       0       0
  8488 ;;      Locals:         2       0       0       0       0       0       0       0       0       0       0       0       
      +0       0       0       0
  8489 ;;      Temps:          2       0       0       0       0       0       0       0       0       0       0       0       
      +0       0       0       0
  8490 ;;      Totals:         9       0       0       0       0       0       0       0       0       0       0       0       
      +0       0       0       0
  8491 ;;Total ram usage:        9 bytes
  8492 ;; Hardware stack levels used:    1
  8493 ;; This function calls:
  8494 ;;		Nothing
  8495 ;; This function is called by:
  8496 ;;		_ECANReceiveMessage
  8497 ;; This function uses a non-reentrant model
  8498 ;;
  8499                           
  8500                           	psect	text35
  8501  00142A                     __ptext35:
  8502                           	opt stack 0
  8503  00142A                     __RegsToCANID:
  8504                           	opt stack 22
  8505                           
  8506                           ;ECANPoll.c: 1158: CAN_MESSAGE_ID *Value;
  8507                           ;ECANPoll.c: 1160: Value = (CAN_MESSAGE_ID*)val;
  8508                           
  8509                           ;incstack = 0
  8510  00142A  C018  F01D         	movff	__RegsToCANID@val+1,__RegsToCANID@Value+1
  8511  00142E  C017  F01C         	movff	__RegsToCANID@val,__RegsToCANID@Value
  8512                           
  8513                           ;ECANPoll.c: 1162: if ( type == 0 )
  8514  001432  6619               	tstfsz	__RegsToCANID@type,c
  8515  001434  D04A               	goto	i2l4292
  8516                           
  8517                           ;ECANPoll.c: 1163: {
  8518                           ;ECANPoll.c: 1165: Value->BYTES.BYTE_1 = (*ptr << 3);
  8519  001436  C015  FFD9         	movff	__RegsToCANID@ptr,fsr2l
  8520  00143A  C016  FFDA         	movff	__RegsToCANID@ptr+1,fsr2h
  8521  00143E  50DF               	movf	indf2,w,c
  8522  001440  6E1A               	movwf	??__RegsToCANID& (0+255),c
  8523  001442  90D8               	bcf	status,0,c
  8524  001444  361A               	rlcf	??__RegsToCANID,f,c
  8525  001446  90D8               	bcf	status,0,c
  8526  001448  361A               	rlcf	??__RegsToCANID,f,c
  8527  00144A  90D8               	bcf	status,0,c
  8528  00144C  341A               	rlcf	??__RegsToCANID,w,c
  8529  00144E  C01C  FFD9         	movff	__RegsToCANID@Value,fsr2l
  8530  001452  C01D  FFDA         	movff	__RegsToCANID@Value+1,fsr2h
  8531  001456  6EDF               	movwf	indf2,c
  8532                           
  8533                           ;ECANPoll.c: 1166: Value->BYTES.BYTE_2 = *ptr >> 5;
  8534  001458  EE20 F001          	lfsr	2,1
  8535  00145C  501C               	movf	__RegsToCANID@Value,w,c
  8536  00145E  26D9               	addwf	fsr2l,f,c
  8537  001460  501D               	movf	__RegsToCANID@Value+1,w,c
  8538  001462  22DA               	addwfc	fsr2h,f,c
  8539  001464  C015  FFE1         	movff	__RegsToCANID@ptr,fsr1l
  8540  001468  C016  FFE2         	movff	__RegsToCANID@ptr+1,fsr1h
  8541  00146C  50E7               	movf	indf1,w,c
  8542  00146E  6E1A               	movwf	??__RegsToCANID& (0+255),c
  8543  001470  0E05               	movlw	5
  8544  001472  6E1B               	movwf	(??__RegsToCANID+1)& (0+255),c
  8545  001474                     i2u328_45:
  8546  001474  90D8               	bcf	status,0,c
  8547  001476  321A               	rrcf	??__RegsToCANID,f,c
  8548  001478  2E1B               	decfsz	(??__RegsToCANID+1)& (0+255),f,c
  8549  00147A  D7FC               	goto	i2u328_45
  8550  00147C  501A               	movf	??__RegsToCANID,w,c
  8551  00147E  6EDF               	movwf	indf2,c
  8552                           
  8553                           ;ECANPoll.c: 1167: ptr++;
  8554  001480  4A15               	infsnz	__RegsToCANID@ptr,f,c
  8555  001482  2A16               	incf	__RegsToCANID@ptr+1,f,c
  8556                           
  8557                           ;ECANPoll.c: 1168: Value->BYTES.BYTE_1 |= (*ptr >> 5);
  8558  001484  C015  FFD9         	movff	__RegsToCANID@ptr,fsr2l
  8559  001488  C016  FFDA         	movff	__RegsToCANID@ptr+1,fsr2h
  8560  00148C  50DF               	movf	indf2,w,c
  8561  00148E  6E1A               	movwf	??__RegsToCANID& (0+255),c
  8562  001490  0E05               	movlw	5
  8563  001492  6E1B               	movwf	(??__RegsToCANID+1)& (0+255),c
  8564  001494                     i2u329_45:
  8565  001494  90D8               	bcf	status,0,c
  8566  001496  321A               	rrcf	??__RegsToCANID,f,c
  8567  001498  2E1B               	decfsz	(??__RegsToCANID+1)& (0+255),f,c
  8568  00149A  D7FC               	goto	i2u329_45
  8569  00149C  C01C  FFD9         	movff	__RegsToCANID@Value,fsr2l
  8570  0014A0  C01D  FFDA         	movff	__RegsToCANID@Value+1,fsr2h
  8571  0014A4  501A               	movf	??__RegsToCANID,w,c
  8572  0014A6  12DF               	iorwf	indf2,f,c
  8573                           
  8574                           ;ECANPoll.c: 1169: Value->BYTES.BYTE_3 = 0x00;
  8575  0014A8  EE20 F002          	lfsr	2,2
  8576  0014AC  501C               	movf	__RegsToCANID@Value,w,c
  8577  0014AE  26D9               	addwf	fsr2l,f,c
  8578  0014B0  501D               	movf	__RegsToCANID@Value+1,w,c
  8579  0014B2  22DA               	addwfc	fsr2h,f,c
  8580  0014B4  0E00               	movlw	0
  8581  0014B6  6EDF               	movwf	indf2,c
  8582                           
  8583                           ;ECANPoll.c: 1170: Value->BYTES.BYTE_4 = 0x00;
  8584  0014B8  EE20 F003          	lfsr	2,3
  8585  0014BC  501C               	movf	__RegsToCANID@Value,w,c
  8586  0014BE  26D9               	addwf	fsr2l,f,c
  8587  0014C0  501D               	movf	__RegsToCANID@Value+1,w,c
  8588  0014C2  22DA               	addwfc	fsr2h,f,c
  8589  0014C4  0E00               	movlw	0
  8590  0014C6  6EDF               	movwf	indf2,c
  8591                           
  8592                           ;ECANPoll.c: 1171: }
  8593  0014C8  0012               	return	
  8594  0014CA                     i2l4292:
  8595                           
  8596                           ;ECANPoll.c: 1172: else
  8597                           ;ECANPoll.c: 1173: {
  8598                           ;ECANPoll.c: 1175: Value->BYTES.BYTE_3 = (*ptr << 5);
  8599  0014CA  EE20 F002          	lfsr	2,2
  8600  0014CE  501C               	movf	__RegsToCANID@Value,w,c
  8601  0014D0  26D9               	addwf	fsr2l,f,c
  8602  0014D2  501D               	movf	__RegsToCANID@Value+1,w,c
  8603  0014D4  22DA               	addwfc	fsr2h,f,c
  8604  0014D6  C015  FFE1         	movff	__RegsToCANID@ptr,fsr1l
  8605  0014DA  C016  FFE2         	movff	__RegsToCANID@ptr+1,fsr1h
  8606  0014DE  50E7               	movf	indf1,w,c
  8607  0014E0  6E1A               	movwf	??__RegsToCANID& (0+255),c
  8608  0014E2  0E05               	movlw	5
  8609  0014E4  6E1B               	movwf	(??__RegsToCANID+1)& (0+255),c
  8610  0014E6                     i2u330_45:
  8611  0014E6  90D8               	bcf	status,0,c
  8612  0014E8  361A               	rlcf	??__RegsToCANID,f,c
  8613  0014EA  2E1B               	decfsz	(??__RegsToCANID+1)& (0+255),f,c
  8614  0014EC  D7FC               	goto	i2u330_45
  8615  0014EE  501A               	movf	??__RegsToCANID,w,c
  8616  0014F0  6EDF               	movwf	indf2,c
  8617                           
  8618                           ;ECANPoll.c: 1176: Value->BYTES.BYTE_4 = (*ptr >> 3);
  8619  0014F2  EE20 F003          	lfsr	2,3
  8620  0014F6  501C               	movf	__RegsToCANID@Value,w,c
  8621  0014F8  26D9               	addwf	fsr2l,f,c
  8622  0014FA  501D               	movf	__RegsToCANID@Value+1,w,c
  8623  0014FC  22DA               	addwfc	fsr2h,f,c
  8624  0014FE  C015  FFE1         	movff	__RegsToCANID@ptr,fsr1l
  8625  001502  C016  FFE2         	movff	__RegsToCANID@ptr+1,fsr1h
  8626  001506  50E7               	movf	indf1,w,c
  8627  001508  6E1A               	movwf	??__RegsToCANID& (0+255),c
  8628  00150A  90D8               	bcf	status,0,c
  8629  00150C  321A               	rrcf	??__RegsToCANID,f,c
  8630  00150E  90D8               	bcf	status,0,c
  8631  001510  321A               	rrcf	??__RegsToCANID,f,c
  8632  001512  90D8               	bcf	status,0,c
  8633  001514  301A               	rrcf	??__RegsToCANID,w,c
  8634  001516  6EDF               	movwf	indf2,c
  8635                           
  8636                           ;ECANPoll.c: 1177: ptr++;
  8637  001518  4A15               	infsnz	__RegsToCANID@ptr,f,c
  8638  00151A  2A16               	incf	__RegsToCANID@ptr+1,f,c
  8639                           
  8640                           ;ECANPoll.c: 1178: Value->BYTES.BYTE_3 |= (*ptr & 0x03);
  8641  00151C  C015  FFD9         	movff	__RegsToCANID@ptr,fsr2l
  8642  001520  C016  FFDA         	movff	__RegsToCANID@ptr+1,fsr2h
  8643  001524  50DF               	movf	indf2,w,c
  8644  001526  6E1A               	movwf	??__RegsToCANID& (0+255),c
  8645  001528  0E03               	movlw	3
  8646  00152A  161A               	andwf	??__RegsToCANID,f,c
  8647  00152C  EE20 F002          	lfsr	2,2
  8648  001530  501C               	movf	__RegsToCANID@Value,w,c
  8649  001532  26D9               	addwf	fsr2l,f,c
  8650  001534  501D               	movf	__RegsToCANID@Value+1,w,c
  8651  001536  22DA               	addwfc	fsr2h,f,c
  8652  001538  501A               	movf	??__RegsToCANID,w,c
  8653  00153A  12DF               	iorwf	indf2,f,c
  8654                           
  8655                           ;ECANPoll.c: 1180: Value->BYTES.BYTE_3 |= ((*ptr & 0xe0) >> 3);
  8656  00153C  C015  FFD9         	movff	__RegsToCANID@ptr,fsr2l
  8657  001540  C016  FFDA         	movff	__RegsToCANID@ptr+1,fsr2h
  8658  001544  50DF               	movf	indf2,w,c
  8659  001546  6E1A               	movwf	??__RegsToCANID& (0+255),c
  8660  001548  90D8               	bcf	status,0,c
  8661  00154A  321A               	rrcf	??__RegsToCANID,f,c
  8662  00154C  90D8               	bcf	status,0,c
  8663  00154E  321A               	rrcf	??__RegsToCANID,f,c
  8664  001550  90D8               	bcf	status,0,c
  8665  001552  321A               	rrcf	??__RegsToCANID,f,c
  8666  001554  0E1C               	movlw	28
  8667  001556  161A               	andwf	??__RegsToCANID,f,c
  8668  001558  EE20 F002          	lfsr	2,2
  8669  00155C  501C               	movf	__RegsToCANID@Value,w,c
  8670  00155E  26D9               	addwf	fsr2l,f,c
  8671  001560  501D               	movf	__RegsToCANID@Value+1,w,c
  8672  001562  22DA               	addwfc	fsr2h,f,c
  8673  001564  501A               	movf	??__RegsToCANID,w,c
  8674  001566  12DF               	iorwf	indf2,f,c
  8675                           
  8676                           ;ECANPoll.c: 1181: ptr++;
  8677  001568  4A15               	infsnz	__RegsToCANID@ptr,f,c
  8678  00156A  2A16               	incf	__RegsToCANID@ptr+1,f,c
  8679                           
  8680                           ;ECANPoll.c: 1182: Value->BYTES.BYTE_2 = *ptr;
  8681  00156C  C015  FFD9         	movff	__RegsToCANID@ptr,fsr2l
  8682  001570  C016  FFDA         	movff	__RegsToCANID@ptr+1,fsr2h
  8683  001574  EE10 F001          	lfsr	1,1
  8684  001578  501C               	movf	__RegsToCANID@Value,w,c
  8685  00157A  26E1               	addwf	fsr1l,f,c
  8686  00157C  501D               	movf	__RegsToCANID@Value+1,w,c
  8687  00157E  22E2               	addwfc	fsr1h,f,c
  8688  001580  CFDF FFE7          	movff	indf2,indf1
  8689                           
  8690                           ;ECANPoll.c: 1183: ptr++;
  8691  001584  4A15               	infsnz	__RegsToCANID@ptr,f,c
  8692  001586  2A16               	incf	__RegsToCANID@ptr+1,f,c
  8693                           
  8694                           ;ECANPoll.c: 1184: Value->BYTES.BYTE_1 = *ptr;
  8695  001588  C015  FFD9         	movff	__RegsToCANID@ptr,fsr2l
  8696  00158C  C016  FFDA         	movff	__RegsToCANID@ptr+1,fsr2h
  8697  001590  C01C  FFE1         	movff	__RegsToCANID@Value,fsr1l
  8698  001594  C01D  FFE2         	movff	__RegsToCANID@Value+1,fsr1h
  8699  001598  CFDF FFE7          	movff	indf2,indf1
  8700  00159C  0012               	return	
  8701  00159E                     __end_of__RegsToCANID:
  8702                           	opt stack 0
  8703  0000                     pclatu	equ	0xFFB
  8704                           pclath	equ	0xFFA
  8705                           tblptru	equ	0xFF8
  8706                           tblptrh	equ	0xFF7
  8707                           tblptrl	equ	0xFF6
  8708                           tablat	equ	0xFF5
  8709                           prodh	equ	0xFF4
  8710                           prodl	equ	0xFF3
  8711                           intcon	equ	0xFF2
  8712                           intcon2	equ	0xFF1
  8713                           intcon3	equ	0xFF0
  8714                           postinc0	equ	0xFEE
  8715                           postdec0	equ	0xFED
  8716                           fsr0h	equ	0xFEA
  8717                           fsr0l	equ	0xFE9
  8718                           wreg	equ	0xFE8
  8719                           indf1	equ	0xFE7
  8720                           postinc1	equ	0xFE6
  8721                           fsr1h	equ	0xFE2
  8722                           fsr1l	equ	0xFE1
  8723                           bsr	equ	0xFE0
  8724                           indf2	equ	0xFDF
  8725                           postinc2	equ	0xFDE
  8726                           postdec2	equ	0xFDD
  8727                           plusw2	equ	0xFDB
  8728                           fsr2h	equ	0xFDA
  8729                           fsr2l	equ	0xFD9
  8730                           status	equ	0xFD8
  8731                           pclatu	equ	0xFFB
  8732                           pclath	equ	0xFFA
  8733                           tblptru	equ	0xFF8
  8734                           tblptrh	equ	0xFF7
  8735                           tblptrl	equ	0xFF6
  8736                           tablat	equ	0xFF5
  8737                           prodh	equ	0xFF4
  8738                           prodl	equ	0xFF3
  8739                           intcon	equ	0xFF2
  8740                           intcon2	equ	0xFF1
  8741                           intcon3	equ	0xFF0
  8742                           postinc0	equ	0xFEE
  8743                           postdec0	equ	0xFED
  8744                           fsr0h	equ	0xFEA
  8745                           fsr0l	equ	0xFE9
  8746                           wreg	equ	0xFE8
  8747                           indf1	equ	0xFE7
  8748                           postinc1	equ	0xFE6
  8749                           fsr1h	equ	0xFE2
  8750                           fsr1l	equ	0xFE1
  8751                           bsr	equ	0xFE0
  8752                           indf2	equ	0xFDF
  8753                           postinc2	equ	0xFDE
  8754                           postdec2	equ	0xFDD
  8755                           plusw2	equ	0xFDB
  8756                           fsr2h	equ	0xFDA
  8757                           fsr2l	equ	0xFD9
  8758                           status	equ	0xFD8
  8759                           
  8760                           	psect	rparam
  8761  0000                     pclatu	equ	0xFFB
  8762                           pclath	equ	0xFFA
  8763                           tblptru	equ	0xFF8
  8764                           tblptrh	equ	0xFF7
  8765                           tblptrl	equ	0xFF6
  8766                           tablat	equ	0xFF5
  8767                           prodh	equ	0xFF4
  8768                           prodl	equ	0xFF3
  8769                           intcon	equ	0xFF2
  8770                           intcon2	equ	0xFF1
  8771                           intcon3	equ	0xFF0
  8772                           postinc0	equ	0xFEE
  8773                           postdec0	equ	0xFED
  8774                           fsr0h	equ	0xFEA
  8775                           fsr0l	equ	0xFE9
  8776                           wreg	equ	0xFE8
  8777                           indf1	equ	0xFE7
  8778                           postinc1	equ	0xFE6
  8779                           fsr1h	equ	0xFE2
  8780                           fsr1l	equ	0xFE1
  8781                           bsr	equ	0xFE0
  8782                           indf2	equ	0xFDF
  8783                           postinc2	equ	0xFDE
  8784                           postdec2	equ	0xFDD
  8785                           plusw2	equ	0xFDB
  8786                           fsr2h	equ	0xFDA
  8787                           fsr2l	equ	0xFD9
  8788                           status	equ	0xFD8


Data Sizes:
    Strings     0
    Constant    0
    Data        0
    BSS         320
    Persistent  0
    Stack       0

Auto Spaces:
    Space          Size  Autos    Used
    COMRAM           95     58      62
    BANK0           160     72     100
    BANK1           256     53     197
    BANK2           256      0     144
    BANK3           256      0       0
    BANK4           256      0       0
    BANK5           256      0       0
    BANK6           256      0       0
    BANK7           256      0       0
    BANK8           256      0       0
    BANK9           256      0       0
    BANK10          256      0       0
    BANK11          256      0       0
    BANK12          256      0       0
    BANK13          256      0       0
    BANK14           65      0       0

Pointer List with Targets:

    _RegsToCANID@ptr	PTR unsigned char  size(2) Largest target is 1
		 -> RXB1CON(ABS[1]), RXB0CON(ABS[1]), 

    _RegsToCANID@val	PTR unsigned long  size(2) Largest target is 14
		 -> high_isr@CANRxNewMessage(BANK0[14]), 

    _RegsToCANID@Value	PTR struct _CAN_MESSAGE_ID size(2) Largest target is 14
		 -> high_isr@CANRxNewMessage(BANK0[14]), 

    _CANIDToRegs@ptr	PTR unsigned char  size(2) Largest target is 1
		 -> TXB2CON(ABS[1]), TXB1CON(ABS[1]), TXB0CON(ABS[1]), 

    _CANIDToRegs@Value	PTR struct _CAN_MESSAGE_ID size(2) Largest target is 4
		 -> _CANIDToRegs@val(BANK0[4]), 

    ECANReceiveMessage@data	PTR unsigned char  size(2) Largest target is 14
		 -> high_isr@CANRxNewMessage(BANK0[14]), 

    ECANReceiveMessage@id	PTR unsigned long  size(2) Largest target is 14
		 -> high_isr@CANRxNewMessage(BANK0[14]), 

    ECANReceiveMessage@dataLen	PTR unsigned char  size(2) Largest target is 14
		 -> high_isr@CANRxNewMessage(BANK0[14]), 

    ECANReceiveMessage@savedPtr	PTR unsigned char  size(2) Largest target is 1
		 -> RXB1CON(ABS[1]), RXB0CON(ABS[1]), 

    ECANReceiveMessage@ptr	PTR unsigned char  size(2) Largest target is 1
		 -> RXB1CON(ABS[1]), RXB0CON(ABS[1]), 

    ECANReceiveMessage@msgFlags	PTR enum E19298 size(2) Largest target is 14
		 -> high_isr@CANRxNewMessage(BANK0[14]), 

    ECANSendMessage@data	PTR unsigned char  size(2) Largest target is 14
		 -> main@TempCANTxMsg(BANK1[14]), 

    ECANSendMessage@tempPtr	PTR unsigned char  size(2) Largest target is 1
		 -> TXB2CON(ABS[1]), TXB1CON(ABS[1]), TXB0CON(ABS[1]), 

    ECANSendMessage@ptr	PTR unsigned char  size(2) Largest target is 1
		 -> TXB2CON(ABS[1]), TXB1CON(ABS[1]), TXB0CON(ABS[1]), 

    ECANSendMessage@pb	PTR unsigned char [9] size(2) Largest target is 1
		 -> TXB2CON(ABS[1]), TXB1CON(ABS[1]), TXB0CON(ABS[1]), 


Critical Paths under _main in COMRAM

    None.

Critical Paths under _high_isr in COMRAM

    _high_isr->_ECANReceiveMessage
    _ECANReceiveMessage->__RegsToCANID

Critical Paths under _low_isr in COMRAM

    _low_isr->_PutUSART1RxFifo
    _low_isr->_PutUSART2RxFifo

Critical Paths under _main in BANK0

    _main->_IMUUpdateData
    _IMUUpdateData->_IMURead
    _IMUInitRegisters->_IMUWrite
    _IMUWrite->_SPIWrite
    _IMUAutotest->_IMURead
    _IMURead->_SPIRead
    _IMURead->_SPIWrite
    _ECANSendMessage->__CANIDToRegs
    _ECANInitialize->_ECANSetOperationMode

Critical Paths under _high_isr in BANK0

    None.

Critical Paths under _low_isr in BANK0

    None.

Critical Paths under _main in BANK1

    None.

Critical Paths under _high_isr in BANK1

    None.

Critical Paths under _low_isr in BANK1

    None.

Critical Paths under _main in BANK2

    None.

Critical Paths under _high_isr in BANK2

    None.

Critical Paths under _low_isr in BANK2

    None.

Critical Paths under _main in BANK3

    None.

Critical Paths under _high_isr in BANK3

    None.

Critical Paths under _low_isr in BANK3

    None.

Critical Paths under _main in BANK4

    None.

Critical Paths under _high_isr in BANK4

    None.

Critical Paths under _low_isr in BANK4

    None.

Critical Paths under _main in BANK5

    None.

Critical Paths under _high_isr in BANK5

    None.

Critical Paths under _low_isr in BANK5

    None.

Critical Paths under _main in BANK6

    None.

Critical Paths under _high_isr in BANK6

    None.

Critical Paths under _low_isr in BANK6

    None.

Critical Paths under _main in BANK7

    None.

Critical Paths under _high_isr in BANK7

    None.

Critical Paths under _low_isr in BANK7

    None.

Critical Paths under _main in BANK8

    None.

Critical Paths under _high_isr in BANK8

    None.

Critical Paths under _low_isr in BANK8

    None.

Critical Paths under _main in BANK9

    None.

Critical Paths under _high_isr in BANK9

    None.

Critical Paths under _low_isr in BANK9

    None.

Critical Paths under _main in BANK10

    None.

Critical Paths under _high_isr in BANK10

    None.

Critical Paths under _low_isr in BANK10

    None.

Critical Paths under _main in BANK11

    None.

Critical Paths under _high_isr in BANK11

    None.

Critical Paths under _low_isr in BANK11

    None.

Critical Paths under _main in BANK12

    None.

Critical Paths under _high_isr in BANK12

    None.

Critical Paths under _low_isr in BANK12

    None.

Critical Paths under _main in BANK13

    None.

Critical Paths under _high_isr in BANK13

    None.

Critical Paths under _low_isr in BANK13

    None.

Critical Paths under _main in BANK14

    None.

Critical Paths under _high_isr in BANK14

    None.

Critical Paths under _low_isr in BANK14

    None.

Call Graph Tables:

 ---------------------------------------------------------------------------------
 (Depth) Function   	        Calls       Base Space   Used Autos Params    Refs
 ---------------------------------------------------------------------------------
 (0) _main                                                56    56      0   13726
                                             69 BANK0      3     3      0
                                              0 BANK1     53    53      0
                      _CANRxFifoInit
                      _CANTxFifoInit
                      _ConfigureGPIO
                _ConfigureInterrupts
                _ConfigureOscillator
                       _ConfigureSPI
                    _ConfigureTimers
                    _ConfigureUSART1
                    _ConfigureUSART2
                    _ECANFiltersInit
                     _ECANInitialize
                    _ECANSendMessage
                       _GetCANRxFifo
                       _GetCANTxFifo
                    _GetUSART1RxFifo
                    _GetUSART2RxFifo
                        _IMUAutotest
                   _IMUInitRegisters
                      _IMUUpdateData
                       _PutCANTxFifo
                        _USART1Write
                      _USARTFifoInit
 ---------------------------------------------------------------------------------
 (1) _USARTFifoInit                                        1     1      0       0
                                             14 BANK0      1     1      0
 ---------------------------------------------------------------------------------
 (1) _USART1Write                                          1     1      0      31
                                             14 BANK0      1     1      0
 ---------------------------------------------------------------------------------
 (1) _PutCANTxFifo                                        16     2     14     647
                                             14 BANK0     16     2     14
 ---------------------------------------------------------------------------------
 (1) _IMUUpdateData                                       48    27     21    3292
                                             21 BANK0     48    27     21
                            _IMURead
 ---------------------------------------------------------------------------------
 (1) _IMUInitRegisters                                     2     2      0    1461
                                             22 BANK0      2     2      0
                           _IMUWrite
 ---------------------------------------------------------------------------------
 (2) _IMUWrite                                             6     4      2    1461
                                             16 BANK0      6     4      2
                           _SPIWrite
 ---------------------------------------------------------------------------------
 (1) _IMUAutotest                                          3     3      0    2386
                                             21 BANK0      3     3      0
                            _IMURead
 ---------------------------------------------------------------------------------
 (2) _IMURead                                              5     4      1    2148
                                             16 BANK0      5     4      1
                            _SPIRead
                           _SPIWrite
 ---------------------------------------------------------------------------------
 (3) _SPIWrite                                             2     2      0      34
                                             14 BANK0      2     2      0
 ---------------------------------------------------------------------------------
 (3) _SPIRead                                              2     2      0      68
                                             14 BANK0      2     2      0
 ---------------------------------------------------------------------------------
 (1) _GetUSART2RxFifo                                      2     2      0      34
                                             14 BANK0      2     2      0
 ---------------------------------------------------------------------------------
 (1) _GetUSART1RxFifo                                      2     2      0      34
                                             14 BANK0      2     2      0
 ---------------------------------------------------------------------------------
 (1) _GetCANTxFifo                                        30    16     14      68
                                             14 BANK0     30    16     14
 ---------------------------------------------------------------------------------
 (1) _GetCANRxFifo                                        30    16     14      68
                                             14 BANK0     30    16     14
 ---------------------------------------------------------------------------------
 (1) _ECANSendMessage                                     34    26      8    2095
                                             25 BANK0     34    26      8
                       __CANIDToRegs
 ---------------------------------------------------------------------------------
 (2) __CANIDToRegs                                        11     4      7     924
                                             14 BANK0     11     4      7
 ---------------------------------------------------------------------------------
 (1) _ECANInitialize                                       0     0      0      62
               _ECANSetOperationMode
 ---------------------------------------------------------------------------------
 (2) _ECANSetOperationMode                                 1     1      0      62
                                             14 BANK0      1     1      0
 ---------------------------------------------------------------------------------
 (1) _ECANFiltersInit                                      4     4      0     260
                                             14 BANK0      4     4      0
 ---------------------------------------------------------------------------------
 (1) _ConfigureUSART2                                      0     0      0       0
 ---------------------------------------------------------------------------------
 (1) _ConfigureUSART1                                      0     0      0       0
 ---------------------------------------------------------------------------------
 (1) _ConfigureTimers                                      0     0      0       0
 ---------------------------------------------------------------------------------
 (1) _ConfigureSPI                                         0     0      0       0
 ---------------------------------------------------------------------------------
 (1) _ConfigureOscillator                                  0     0      0       0
 ---------------------------------------------------------------------------------
 (1) _ConfigureInterrupts                                  0     0      0       0
 ---------------------------------------------------------------------------------
 (1) _ConfigureGPIO                                        0     0      0       0
 ---------------------------------------------------------------------------------
 (1) _CANTxFifoInit                                        1     1      0       0
                                             14 BANK0      1     1      0
 ---------------------------------------------------------------------------------
 (1) _CANRxFifoInit                                        1     1      0       0
                                             14 BANK0      1     1      0
 ---------------------------------------------------------------------------------
 Estimated maximum stack depth 3
 ---------------------------------------------------------------------------------
 (Depth) Function   	        Calls       Base Space   Used Autos Params    Refs
 ---------------------------------------------------------------------------------
 (4) _low_isr                                             18    18      0      90
                                              2 COMRAM    18    18      0
                    _PutUSART1RxFifo
                    _PutUSART2RxFifo
 ---------------------------------------------------------------------------------
 (5) _PutUSART2RxFifo                                      2     2      0      22
                                              0 COMRAM     2     2      0
 ---------------------------------------------------------------------------------
 (5) _PutUSART1RxFifo                                      2     2      0      22
                                              0 COMRAM     2     2      0
 ---------------------------------------------------------------------------------
 Estimated maximum stack depth 5
 ---------------------------------------------------------------------------------
 (Depth) Function   	        Calls       Base Space   Used Autos Params    Refs
 ---------------------------------------------------------------------------------
 (6) _high_isr                                            28    28      0    1809
                                             44 COMRAM    14    14      0
                                              0 BANK0     14    14      0
                 _ECANReceiveMessage
                       _PutCANRxFifo
 ---------------------------------------------------------------------------------
 (7) _PutCANRxFifo                                        16     2     14     108
                                             20 COMRAM    16     2     14
 ---------------------------------------------------------------------------------
 (7) _ECANReceiveMessage                                  15     7      8    1464
                                             29 COMRAM    15     7      8
                       __RegsToCANID
 ---------------------------------------------------------------------------------
 (8) __RegsToCANID                                         9     4      5     681
                                             20 COMRAM     9     4      5
 ---------------------------------------------------------------------------------
 Estimated maximum stack depth 8
 ---------------------------------------------------------------------------------

 Call Graph Graphs:

 _main (ROOT)
   _CANRxFifoInit
   _CANTxFifoInit
   _ConfigureGPIO
   _ConfigureInterrupts
   _ConfigureOscillator
   _ConfigureSPI
   _ConfigureTimers
   _ConfigureUSART1
   _ConfigureUSART2
   _ECANFiltersInit
   _ECANInitialize
     _ECANSetOperationMode
   _ECANSendMessage
     __CANIDToRegs
   _GetCANRxFifo
   _GetCANTxFifo
   _GetUSART1RxFifo
   _GetUSART2RxFifo
   _IMUAutotest
     _IMURead
       _SPIRead
       _SPIWrite
   _IMUInitRegisters
     _IMUWrite
       _SPIWrite
   _IMUUpdateData
     _IMURead
       _SPIRead
       _SPIWrite
   _PutCANTxFifo
   _USART1Write
   _USARTFifoInit

 _low_isr (ROOT)
   _PutUSART1RxFifo
   _PutUSART2RxFifo

 _high_isr (ROOT)
   _ECANReceiveMessage
     __RegsToCANID
   _PutCANRxFifo

 Address spaces:
Name               Size   Autos  Total    Cost      Usage
BIGRAM             E40      0       0      35        0.0%
EEDATA             400      0       0       0        0.0%
BITBANK13          100      0       0      31        0.0%
BANK13             100      0       0      32        0.0%
BITBANK12          100      0       0      29        0.0%
BANK12             100      0       0      30        0.0%
BITBANK11          100      0       0      27        0.0%
BANK11             100      0       0      28        0.0%
BITBANK10          100      0       0      25        0.0%
BANK10             100      0       0      26        0.0%
BITBANK9           100      0       0      23        0.0%
BANK9              100      0       0      24        0.0%
BITBANK8           100      0       0      21        0.0%
BANK8              100      0       0      22        0.0%
BITBANK7           100      0       0      19        0.0%
BANK7              100      0       0      20        0.0%
BITBANK6           100      0       0      17        0.0%
BANK6              100      0       0      18        0.0%
BITBANK5           100      0       0      15        0.0%
BANK5              100      0       0      16        0.0%
BITBANK4           100      0       0      13        0.0%
BANK4              100      0       0      14        0.0%
BITBANK3           100      0       0      11        0.0%
BANK3              100      0       0      12        0.0%
BITBANK2           100      0       0       9        0.0%
BANK2              100      0      90      10       56.3%
BITBANK1           100      0       0       7        0.0%
BANK1              100     35      C5       8       77.0%
BITBANK0            A0      0       0       4        0.0%
BANK0               A0     48      64       5       62.5%
BITCOMRAM           5F      0       0       0        0.0%
COMRAM              5F     3A      3E       1       65.3%
BITBANK14           41      0       0      33        0.0%
BANK14              41      0       0      34        0.0%
BITSFR_2             0      0       0      40        0.0%
SFR_2                0      0       0      40        0.0%
BITSFR_1             0      0       0      40        0.0%
SFR_1                0      0       0      40        0.0%
BITSFR               0      0       0      40        0.0%
SFR                  0      0       0      40        0.0%
STACK                0      0       0       2        0.0%
NULL                 0      0       0       0        0.0%
ABS                  0      0     1F7       6        0.0%
DATA                 0      0     1F7       3        0.0%
CODE                 0      0       0       0        0.0%


Microchip Technology PIC18 Macro Assembler V1.30 build 55553 
Symbol Table                                                                                   Wed Nov 05 15:16:14 2014

               ?_USARTFifoInit 0001                  IMURead@Result 0074                    _SSPSTATbits 000FC7  
                           bsr 000FE0                    __CFG_BORV$3 000000              ??_ECANFiltersInit 006E  
                IMURead@adress 0072                   __CFG_CP0$OFF 000000                   __CFG_CP1$OFF 000000  
                 __CFG_CP2$OFF 000000                   __CFG_CP3$OFF 000000          __end_of_CANRxFifoInit 2224  
                  main@TempVar 0191                            l304 22DC                            l309 2268  
                          l438 116C                            l289 2336                   __CFG_CPB$OFF 000000  
                 __CFG_CPD$OFF 000000                            fsr0 000FE9                            prod 000FF3  
                          wreg 000FE8                     _TXSTA1bits 000FAC                     _TXSTA2bits 000FBA  
              IMURead@TempData 0073          __end_of_CANTxFifoInit 21E2               _IMUInitRegisters 1268  
                         l4102 1D84                           l4110 1D8E                           l4050 1D04  
                         l4212 11FA                           l4220 1224                           l4204 1198  
                         l4132 1E0E                           l4140 1E18                           l4070 19E2  
                         l4046 1CE4                           l4128 1DEE                           l3504 0886  
                         l4066 19C2                           l4162 1906                           l4170 1920  
                         l4260 0F66                           l4228 1256                           l3620 0B9E  
                         l3532 0912                           l4078 19FC                           l4158 18E6  
                         l3702 0E5A                           l3526 08F2                           l4248 22F4  
                         l4184 10E8                           l4098 1D64                           l4370 1FF0  
                         l4362 1FD6                           l3650 0CE0                           l4198 1170  
                         l4390 1F68                           l4366 1FE4                           l3638 0C50  
                         l3670 0D7E                           l3566 0A04                           l3664 0D54  
                         l3592 0AC4                           l3568 0A06                           l4394 1F74  
                         l4386 1F5A                           l3922 1C36                           l3916 1C00  
                         l3686 0DEC                           l3928 1C6C                           u3101 1912  
                         _LATA 000F89                           u3111 1944                           u3071 18AC  
                         u2511 09F8                           u2601 0BB8                           u3245 0F14  
                         u2541 0AB8                           _IPR1 000F9F                           _IPR2 000FA2  
                         u3255 0F4A                           u2631 0C44                           u3407 08B0  
                         _PIE1 000F9D                           _IPR3 000FA5                           _PIE2 000FA0  
                         _IPR4 000FB8                           u3265 0F84                           u2801 0E74  
                         u3417 08C0                           _PIE3 000FA3                           _IPR5 000F78  
                         _PIE4 000FB6                           u3507 141E                           u2571 0B92  
                         u2491 0930                           u3427 08FA                           _PIE5 000F76  
                         u3437 1296                           u2741 0DE0                           u2661 0CD4  
                         u3447 12CE                           u2911 1CAA                           u3457 1306  
                         u3377 07FE                           u3467 133E                           u2771 0E4E  
                         u2691 0D48                           u3387 085A                           u3477 1376  
                         u3397 088E                           u2951 1988                           u3487 13AE  
                         u2855 0566                           i1l40 0088                           u3497 13E6  
                         u2865 0622                           u2891 07E4                           u2875 06DE  
                         i1l44 00A0                           u2981 19EE                __end_of_IMURead 1F98  
                         u2885 0794                           u2991 1A20                           _PIR1 000F9E  
                         _PIR2 000FA1                           _PIR3 000FA4                           i2l36 1B80  
                         _PIR4 000FB7                           _PIR5 000F77               ??_ECANInitialize 006F  
    GetUSART1RxFifo@CharToRead 006F                           _main 07F2                __end_of_SPIRead 227A  
                         fsr0h 000FEA                           fsr1h 000FE2                           fsr0l 000FE9  
                         fsr2h 000FDA                           indf1 000FE7                           fsr1l 000FE1  
                         indf2 000FDF                           fsr2l 000FD9                           pclat 000FFA  
                         prodh 000FF4                           prodl 000FF3                           start 00E6  
                __CFG_IESO$OFF 000000                  __CFG_FOSC$HS1 000000            _ConfigureInterrupts 2150  
                __CFG_MCLRE$ON 000000      ECANReceiveMessage@dataLen 0022         IMUUpdateData@temp_data 0090  
             __RegsToCANID@val 0017               __RegsToCANID@ptr 0015          __size_of_GetCANRxFifo 00DC  
                __CFG_RETEN$ON 000000          __size_of_GetCANTxFifo 00DC                   _BAUDCON1bits 000FA7  
                 _BAUDCON2bits 000FB9                          ?_main 0001              ??_PutUSART1RxFifo 0001  
            ??_PutUSART2RxFifo 0001                          i2l449 1742                          i2l458 17C8  
                        _RCREG 000FAE                          _IRXIF 007BBF                          _TMR0H 000FD7  
                        _TMR0L 000FD6                          _TRISA 000F92                          _TRISB 000F93  
                        _TRISC 000F94                          _TRISD 000F95                          _TRISE 000F96  
         ?_ConfigureInterrupts 0001            _ConfigureOscillator 2340               __end_of_IMUWrite 200C  
                __CFG_WRT0$OFF 000000                  __CFG_WRT1$OFF 000000                  __CFG_WRT2$OFF 000000  
                __CFG_WRT3$OFF 000000                 __CFG_EBTR0$OFF 000000                 __CFG_FCMEN$OFF 000000  
               __CFG_EBTR1$OFF 000000                 __CFG_EBTR2$OFF 000000                 __CFG_EBTR3$OFF 000000  
                __CFG_WRTB$OFF 000000                  __CFG_WRTC$OFF 000000                  __CFG_WRTD$OFF 000000  
               __CFG_EBTRB$OFF 000000                          main@i 0192                   ?_IMUAutotest 0001  
              __end_of_low_isr 00E6               __end_of_SPIWrite 22E4                          tablat 000FF5  
                        plusw2 000FDB                _ConfigureUSART1 229E                _ConfigureUSART2 227A  
                        status 000FD8           ?_ConfigureOscillator 0001                   _GetCANRxFifo 1952  
                 _GetCANTxFifo 1876           _ECANSetOperationMode 22E4                _ConfigureTimers 2304  
              __initialization 2224                ??_USARTFifoInit 006E                   __end_of_main 0EB0  
            ??_ECANSendMessage 0081                         ??_main 00A5           __end_of_ConfigureSPI 2332  
                __activetblptr 000000              __RegsToCANID@type 0019          ??_ConfigureInterrupts 006E  
               __CFG_PLLCFG$ON 000000                      ??_IMURead 0071     ECANReceiveMessage@msgFlags 0024  
                       _ADCON0 000FC2                         _ADCON1 000FC1                         _ADCON2 000FC0  
   ECANReceiveMessage@savedPtr 0027                         _CANCON 000F6F                      ??_SPIRead 006E  
                       _ANCON0 000F5D                         _ANCON1 000F5C                         _CIOCON 000F70  
                       i1l2410 207C                         _MDSEL0 007B96                         _MDSEL1 007B97  
                       i1l2406 2060                         i1l3340 0070                         i1l2392 20F0  
                       i1l2388 20D4                __CFG_BBSIZ$BB2K 000000                         i2l3414 17EE  
               __CFG_WDTEN$OFF 000000                         i2l3424 1830                         i2l3432 184E  
                       i2l3438 1868                         i2l3454 1EFE                         i2l3394 177A  
                       i2l3378 1730                         i2l4292 14CA                         i2l3388 175C  
                       _INTCON 000FF2                         _RCREG2 000F7A                         _RCSTA1 000FAB  
                       _RCSTA2 000FA6                         _RXB0IF 007BB8                         _RXB1IF 007BB9  
                       _SPBRG1 000FAF                         _SPBRG2 000F7B         ECANReceiveMessage@data 0020  
                       _SSPBUF 000FC9         ECANReceiveMessage@temp 002C                         _TXREG1 000FAD  
                       _TXREG2 000F79                         _TXSTA1 000FAC                         _TXSTA2 000FBA  
        ??_ConfigureOscillator 006E          ?_ECANSetOperationMode 0001             __CANIDToRegs@Value 0077  
               __CFG_PWRTEN$ON 000000                 __CFG_XINST$OFF 000000               __end_of_high_isr 1BBA  
               __CFG_STVREN$ON 000000                USART1Write@data 006E                         clear_0 222A  
                       clear_1 2236                         clear_2 2242      GetUSART2RxFifo@CharToRead 006F  
                 SPIWrite@data 006F                      ??_low_isr 0003                         tblptrh 000FF7  
                       tblptrl 000FF6                         tblptru 000FF8        __end_of_ConfigureUSART1 22C2  
      __end_of_ConfigureUSART2 229E                  ?_PutCANRxFifo 0015                  ?_PutCANTxFifo 006E  
                 ?_USART1Write 0001        __end_of_ConfigureTimers 231E               SPIRead@DummyData 006E  
                   __accesstop 0060        __end_of__initialization 2250                _ECANFiltersInit 159E  
                    ?_IMUWrite 0070                 __pcstackCOMRAM 0001       __end_of_IMUInitRegisters 142A  
                    ?_SPIWrite 0001                  ?__RegsToCANID 0015    __size_of_ECANReceiveMessage 0166  
               ??_PutCANRxFifo 0023                 ??_PutCANTxFifo 007C             __RegsToCANID@Value 001C  
        __end_of_ConfigureGPIO 2150                     __pbssBANK0 00A8                     __pbssBANK1 0100  
                   __pbssBANK2 0200                 SPIRead@TempVar 006F           __size_of_IMUAutotest 00BA  
       ??_ECANSetOperationMode 006E                _PutUSART1RxFifo 2080       __size_of_GetUSART1RxFifo 008A  
              _PutUSART2RxFifo 200C                     ??_IMUWrite 0072       __size_of_GetUSART2RxFifo 008A  
     ECANSetOperationMode@mode 006E          __size_of_ConfigureSPI 0014           __ECANRxFilterHitInfo 003E  
                      _CANSTAT 000F6E                 ??__RegsToCANID 001A                        _BRGCON1 000E43  
                      _BRGCON2 000E44                        _BRGCON3 000E45                     ??_SPIWrite 006E  
             IMUWrite@TempData 0075                        _INTCON2 000FF1                        _INTCON3 000FF0  
             __CFG_CANMX$PORTB 000000                    _TickCounter 003B                        _IMURead 1F1C  
                      _RXB0CON 000F60                        _RXB1CON 000F30                        _RXB0FUL 007B07  
                      _RXB1FUL 007987               ?_ConfigureUSART1 0001               ?_ConfigureUSART2 0001  
                      _TXB0CON 000F20                        _TXB1CON 000F10                        _TXB2CON 000F00  
       __size_of_IMUUpdateData 0708                        _SSPCON1 000FC6                        _SPIRead 2256  
                    ?_high_isr 0001                        _SSPSTAT 000FC7        __end_of_ECANFiltersInit 1710  
             ?_ConfigureTimers 0001                   _ConfigureSPI 231E         __size_of_CANRxFifoInit 0042  
              _ECANSendMessage 1090                    low_isr@temp 0014                        __Hparam 0000  
                      __Lparam 0000                      _CANRxFifo 0200                      _CANTxFifo 0100  
       __size_of_CANTxFifoInit 0042         PutCANRxFifo@PutMessage 0015              IMUAutotest@Result 0077  
                      __pcinit 2224                        __ramtop 0F00                        __ptext0 07F2  
                      __ptext1 1E1C                        __ptext2 2332                        __ptext3 1C74  
                      __ptext4 00EA                        __ptext5 1268                        __ptext6 1F98  
                      __ptext7 1BBA                        __ptext8 1F1C                        __ptext9 22C2  
                    _T0CONbits 000FD5              __CFG_MSSPMSK$MSK7 000000                        _low_isr 0018  
                   ??_high_isr 002D                 __pintcode_body 1AF4           end_of_initialization 2250  
         __size_of_USART1Write 000E        __end_of_PutUSART1RxFifo 20F4        __end_of_PutUSART2RxFifo 2080  
                      int_func 1AF4              ECANSendMessage@id 0079              ECANSendMessage@pb 0082  
         __end_of_PutCANRxFifo 1F1C           __end_of_PutCANTxFifo 1D08                        postdec0 000FED  
                      postdec2 000FDD                  _IMUUpdateData 00EA        __size_of_ECANInitialize 00C6  
                      postinc0 000FEE                        postinc1 000FE6                        postinc2 000FDE  
        __end_of_USARTFifoInit 1E9E    __end_of_ConfigureInterrupts 21A0                      _RXM0EXIDM 0077CB  
            ??_GetUSART1RxFifo 006E              ??_GetUSART2RxFifo 006E                  _CANRxFifoInit 21E2  
   PutUSART1RxFifo@ByteToWrite 0002                  _CANTxFifoInit 21A0    __end_of_ConfigureOscillator 234E  
      __end_of_ECANSendMessage 1268               ?_ECANFiltersInit 0001                  ?__CANIDToRegs 006E  
         __end_of__RegsToCANID 159E                 ?_IMUUpdateData 0075      GetCANRxFifo@LocalCANRXMsg 007E  
            ?_IMUInitRegisters 0001              __size_of_IMUWrite 0074               main@TempCANRxMsg 0194  
             main@TempCANTxMsg 01B7             ??_IMUInitRegisters 0076                 ?_CANRxFifoInit 0001  
            __size_of_SPIWrite 0022            start_initialization 2224                 ?_CANTxFifoInit 0001  
       PutCANTxFifo@PutMessage 006E                 IMUWrite@Device 0071                 ??__CANIDToRegs 0075  
             ?_PutUSART1RxFifo 0001               ?_PutUSART2RxFifo 0001                 IMUWrite@Result 0073  
        ECANReceiveMessage@ptr 002A                 IMUWrite@adress 0074              __CANIDToRegs@type 0074  
   __end_of_ECANReceiveMessage 1876            ECANFiltersInit@mask 0070                    __pbssCOMRAM 003B  
                __pcstackBANK0 0060                  __pcstackBANK1 0190                       ?_IMURead 0070  
                     ?_SPIRead 0001                  ??_IMUAutotest 0075               ?_ECANSendMessage 0079  
                 IMUWrite@data 0070              __size_of_high_isr 1BB2          __size_of_PutCANRxFifo 007E  
        __size_of_PutCANTxFifo 0094                ??_IMUUpdateData 008A                  ?_GetCANRxFifo 006E  
                ?_GetCANTxFifo 006E  __size_of_ECANSetOperationMode 0020                 _ECANInitialize 1A2E  
                    __pintcode 0008         __size_of_ConfigureGPIO 005C                ??_CANRxFifoInit 006E  
                  __pintcodelo 0018                ??_CANTxFifoInit 006E                       ?_low_isr 0001  
                 _PutCANRxFifo 1E9E             main@CurrentIMUData 01A2          __size_of__RegsToCANID 0174  
                 _PutCANTxFifo 1C74                       _LATAbits 000F89                       _LATBbits 000F8A  
                     _LATCbits 000F8B                       _LATDbits 000F8C                       _LATEbits 000F8D  
     __size_of_ConfigureUSART1 0024       __size_of_ConfigureUSART2 0024                 ??_GetCANRxFifo 007C  
               ??_GetCANTxFifo 007C                       _PIE1bits 000F9D            __end_of_IMUAutotest 1C74  
       __end_of_ECANInitialize 1AF4                _GetUSART1RxFifo 1D92                _GetUSART2RxFifo 1D08  
                     i2u232_45 1738                       i2u232_47 173A                       i2u241_41 1ECC  
                     i2u330_45 14E6                       i2u229_41 1B70                       i2u328_45 1474  
                     _PIR1bits 000F9E                       i2u329_45 1494                       _PIR3bits 000FA4  
                     _PIR5bits 000F77               ECANSendMessage@i 0098               ECANSendMessage@j 0094  
                     _IMUWrite 1F98                       _RCONbits 000FD0       __size_of_ConfigureTimers 001A  
                     _RXB0OVFL 007B8F                       _RXB1OVFL 007B8E                       _RXF0SIDH 000EE0  
                     _RXF0SIDL 000EE1                       _RXF1SIDH 000EE4                       _RXF1SIDL 000EE5  
                     _RXF2SIDH 000EE8                       _RXF2SIDL 000EE9                       _RXF3SIDH 000EEC  
                     _RXF3SIDL 000EED                       _RXF4SIDH 000EF0                       _RXF4SIDL 000EF1  
                     _RXF5SIDH 000EF4                       _RXF5SIDL 000EF5               ECANPoll@RXBODBEN 007B02  
                     _RXM0SIDH 000EF8                       _RXBODBEN 007B02                       _RXM0SIDL 000EF9  
                     _RXM1SIDH 000EFC                       _RXM1SIDL 000EFD        high_isr@CANRxNewMessage 0060  
         __end_of__CANIDToRegs 1090                     _ADCON0bits 000FC2                       _SPIWrite 22C2  
                   _ADCON2bits 000FC0                      main@i_888 0193               __CFG_SOSCSEL$DIG 000000  
                 __RegsToCANID 142A          main@IMUAutotestResult 0190               __size_of_IMURead 007C  
                ??_USART1Write 006E                  _ConfigureGPIO 20F4               __size_of_SPIRead 0024  
              SPIWrite@TempVar 006E                ?_ECANInitialize 0001                       __Hrparam 0000  
         ECANReceiveMessage@id 001E                       __Lrparam 0000               __CANIDToRegs@val 0070  
             __CANIDToRegs@ptr 006E             __CFG_BOREN$SBORDIS 000000             IMUAutotest@TempVar 0076  
 __size_of_ConfigureInterrupts 0050     PutUSART2RxFifo@ByteToWrite 0002               __size_of_low_isr 00CE  
                     __ptext10 2256                       __ptext11 1D08                       __ptext20 227A  
                     __ptext12 1D92                       __ptext21 229E                       __ptext13 1876  
                     __ptext30 200C                       __ptext22 2304                       __ptext14 1952  
                     __ptext31 2080                       __ptext23 231E                       __ptext15 1090  
                     __ptext24 2340                       __ptext16 0EB0                       __ptext33 1E9E  
                     __ptext25 2150                       __ptext17 1A2E                       __ptext34 1710  
                     __ptext26 20F4                       __ptext18 22E4                       __ptext35 142A  
                     __ptext27 21A0                       __ptext19 159E                       __ptext28 21E2  
    __size_of_IMUInitRegisters 01C2                 ?_ConfigureGPIO 0001                       _high_isr 0008  
                  _IMUAutotest 1BBA        __end_of_GetUSART1RxFifo 1E1C        __end_of_GetUSART2RxFifo 1D92  
       __size_of_USARTFifoInit 0082                  __size_of_main 06BE            __end_of_USART1Write 2340  
 __size_of_ConfigureOscillator 000E       __size_of_ECANFiltersInit 0172            ECANSendMessage@data 007D  
          ECANSendMessage@temp 0097      GetCANTxFifo@LocalCANTXMsg 007E              ??_ConfigureUSART1 006E  
            ??_ConfigureUSART2 006E                    _RXB0FILHIT0 007B00            __CFG_INTOSCSEL$HIGH 000000  
            ??_ConfigureTimers 006E           __end_of_GetCANRxFifo 1A2E                     _INTCONbits 000FF2  
         __end_of_GetCANTxFifo 1952            ECANReceiveMessage@i 0029             _ECANReceiveMessage 1710  
             ecanpoll@RXBODBEN 007B02                       intlevel1 0000                       intlevel2 0000  
          ?_ECANReceiveMessage 001E                  ?_ConfigureSPI 0001                    _TXB0CONbits 000F20  
                   _RCSTA1bits 000FAB                     _RCSTA2bits 000FA6        ECANSendMessage@msgFlags 0080  
                   _OSCCONbits 000FD3         IMUUpdateData@Temp_Var1 008C         IMUUpdateData@Temp_Var2 008E  
           ECANSendMessage@ptr 0099          __size_of__CANIDToRegs 01E0       __size_of_PutUSART1RxFifo 0074  
     __size_of_PutUSART2RxFifo 0074                   _USART1RxFifo 00A8                   _USART2RxFifo 00B6  
           __CFG_WDTPS$1048576 000000                  _USARTFifoInit 1E1C         ECANSendMessage@dataLen 007F  
         ??_ECANReceiveMessage 0026   __end_of_ECANSetOperationMode 2304                ??_ConfigureGPIO 006E  
                   _RXM1EXIDEN 0077EB                    _SSPCON1bits 000FC6         ECANSendMessage@tempPtr 0095  
                  _USART1Write 2332               ?_GetUSART1RxFifo 0001               ?_GetUSART2RxFifo 0001  
               ??_ConfigureSPI 006E            __CFG_BORPWR$ZPBORMV 000000                   __CANIDToRegs 0EB0  
     __size_of_ECANSendMessage 01D8          __end_of_IMUUpdateData 07F2                  IMURead@Device 0070  
